
dead_reckoning.elf:     file format elf32-avr

Sections:
Idx Name          Size      VMA       LMA       File off  Algn
  0 .data         00000220  00800100  00005d6c  00005e00  2**0
                  CONTENTS, ALLOC, LOAD, DATA
  1 .text         00005d6c  00000000  00000000  00000094  2**1
                  CONTENTS, ALLOC, LOAD, READONLY, CODE
  2 .bss          0000044c  00800320  00800320  00006020  2**0
                  ALLOC

Disassembly of section .text:

00000000 <.text>:
       0:	91 c0       	rjmp	.+290    	;  0x124
       2:	00 00       	nop
       4:	b6 c0       	rjmp	.+364    	;  0x172
       6:	00 00       	nop
       8:	b4 c0       	rjmp	.+360    	;  0x172
       a:	00 00       	nop
       c:	b2 c0       	rjmp	.+356    	;  0x172
       e:	00 00       	nop
      10:	b0 c0       	rjmp	.+352    	;  0x172
      12:	00 00       	nop
      14:	ae c0       	rjmp	.+348    	;  0x172
      16:	00 00       	nop
      18:	ac c0       	rjmp	.+344    	;  0x172
      1a:	00 00       	nop
      1c:	0c 94 3a 1f 	jmp	0x3e74	;  0x3e74
      20:	a8 c0       	rjmp	.+336    	;  0x172
      22:	00 00       	nop
      24:	a6 c0       	rjmp	.+332    	;  0x172
      26:	00 00       	nop
      28:	a4 c0       	rjmp	.+328    	;  0x172
      2a:	00 00       	nop
      2c:	a2 c0       	rjmp	.+324    	;  0x172
      2e:	00 00       	nop
      30:	a0 c0       	rjmp	.+320    	;  0x172
      32:	00 00       	nop
      34:	9e c0       	rjmp	.+316    	;  0x172
      36:	00 00       	nop
      38:	9c c0       	rjmp	.+312    	;  0x172
      3a:	00 00       	nop
      3c:	9a c0       	rjmp	.+308    	;  0x172
      3e:	00 00       	nop
      40:	0c 94 8c 27 	jmp	0x4f18	;  0x4f18
      44:	96 c0       	rjmp	.+300    	;  0x172
      46:	00 00       	nop
      48:	0c 94 8f 22 	jmp	0x451e	;  0x451e
      4c:	0c 94 dc 22 	jmp	0x45b8	;  0x45b8
      50:	90 c0       	rjmp	.+288    	;  0x172
      52:	00 00       	nop
      54:	8e c0       	rjmp	.+284    	;  0x172
      56:	00 00       	nop
      58:	8c c0       	rjmp	.+280    	;  0x172
      5a:	00 00       	nop
      5c:	8a c0       	rjmp	.+276    	;  0x172
      5e:	00 00       	nop
      60:	0c 94 8b 1d 	jmp	0x3b16	;  0x3b16
      64:	86 c0       	rjmp	.+268    	;  0x172
      66:	00 00       	nop
      68:	08 4a       	sbci	r16, 0xA8	; 168
      6a:	d7 3b       	cpi	r29, 0xB7	; 183
      6c:	3b ce       	rjmp	.-906    	;  0xfffffce4
      6e:	01 6e       	ori	r16, 0xE1	; 225
      70:	84 bc       	out	0x24, r8	; 36
      72:	bf fd       	.word	0xfdbf	; ????
      74:	c1 2f       	mov	r28, r17
      76:	3d 6c       	ori	r19, 0xCD	; 205
      78:	74 31       	cpi	r23, 0x14	; 20
      7a:	9a bd       	out	0x2a, r25	; 42
      7c:	56 83       	std	Z+6, r21	; 0x06
      7e:	3d da       	rcall	.-2950   	;  0xfffff4fa
      80:	3d 00       	.word	0x003d	; ????
      82:	c7 7f       	andi	r28, 0xF7	; 247
      84:	11 be       	out	0x31, r1	; 49
      86:	d9 e4       	ldi	r29, 0x49	; 73
      88:	bb 4c       	sbci	r27, 0xCB	; 203
      8a:	3e 91       	ld	r19, -X
      8c:	6b aa       	std	Y+51, r6	; 0x33
      8e:	aa be       	out	0x3a, r10	; 58
      90:	00 00       	nop
      92:	00 80       	ld	r0, Z
      94:	3f 05       	cpc	r19, r15
      96:	a8 4c       	sbci	r26, 0xC8	; 200
      98:	cd b2       	in	r12, 0x1d	; 29
      9a:	d4 4e       	sbci	r29, 0xE4	; 228
      9c:	b9 38       	cpi	r27, 0x89	; 137
      9e:	36 a9       	ldd	r19, Z+54	; 0x36
      a0:	02 0c       	add	r0, r2
      a2:	50 b9       	out	0x00, r21	; 0
      a4:	91 86       	std	Z+9, r9	; 0x09
      a6:	88 08       	sbc	r8, r8
      a8:	3c a6       	std	Y+44, r3	; 0x2c
      aa:	aa aa       	std	Y+50, r10	; 0x32
      ac:	2a be       	out	0x3a, r2	; 58
      ae:	00 00       	nop
      b0:	00 80       	ld	r0, Z
      b2:	3f 68       	ori	r19, 0x8F	; 143
      b4:	20 3d       	cpi	r18, 0xD0	; 208
      b6:	3e 20       	and	r3, r14
      b8:	68 65       	ori	r22, 0x58	; 88
      ba:	6c 70       	andi	r22, 0x0C	; 12
      bc:	00 00       	nop
      be:	00 00       	nop
      c0:	00 24       	eor	r0, r0
      c2:	00 27       	eor	r16, r16
      c4:	00 2a       	or	r0, r16
      c6:	00 00       	nop
      c8:	00 00       	nop
      ca:	00 25       	eor	r16, r0
      cc:	00 28       	or	r0, r0
      ce:	00 2b       	or	r16, r16
      d0:	00 00       	nop
      d2:	00 00       	nop
      d4:	00 23       	and	r16, r16
      d6:	00 26       	eor	r0, r16
      d8:	00 29       	or	r16, r0
      da:	00 04       	cpc	r0, r0
      dc:	04 04       	cpc	r0, r4
      de:	04 04       	cpc	r0, r4
      e0:	04 04       	cpc	r0, r4
      e2:	04 02       	muls	r16, r20
      e4:	02 02       	muls	r16, r18
      e6:	02 02       	muls	r16, r18
      e8:	02 03       	mulsu	r16, r18
      ea:	03 03       	mulsu	r16, r19
      ec:	03 03       	mulsu	r16, r19
      ee:	03 01       	movw	r0, r6
      f0:	02 04       	cpc	r0, r2
      f2:	08 10       	cpse	r0, r8
      f4:	20 40       	sbci	r18, 0x00	; 0
      f6:	80 01       	movw	r16, r0
      f8:	02 04       	cpc	r0, r2
      fa:	08 10       	cpse	r0, r8
      fc:	20 01       	movw	r4, r0
      fe:	02 04       	cpc	r0, r2
     100:	08 10       	cpse	r0, r8
     102:	20 00       	.word	0x0020	; ????
     104:	00 00       	nop
     106:	07 00       	.word	0x0007	; ????
     108:	02 01       	movw	r0, r4
     10a:	00 00       	nop
     10c:	03 04       	cpc	r0, r3
     10e:	06 00       	.word	0x0006	; ????
	...
     118:	bc 12       	cpse	r11, r28
     11a:	41 1a       	sub	r4, r17
     11c:	c3 1c       	adc	r12, r3
     11e:	48 24       	eor	r4, r8
     120:	b7 12       	cpse	r11, r23
     122:	da 1c       	adc	r13, r10
     124:	11 24       	eor	r1, r1
     126:	1f be       	out	0x3f, r1	; 63
     128:	cf ef       	ldi	r28, 0xFF	; 255
     12a:	d8 e0       	ldi	r29, 0x08	; 8
     12c:	de bf       	out	0x3e, r29	; 62
     12e:	cd bf       	out	0x3d, r28	; 61
     130:	13 e0       	ldi	r17, 0x03	; 3
     132:	a0 e0       	ldi	r26, 0x00	; 0
     134:	b1 e0       	ldi	r27, 0x01	; 1
     136:	ec e6       	ldi	r30, 0x6C	; 108
     138:	fd e5       	ldi	r31, 0x5D	; 93
     13a:	02 c0       	rjmp	.+4      	;  0x140
     13c:	05 90       	lpm	r0, Z+
     13e:	0d 92       	st	X+, r0
     140:	a0 32       	cpi	r26, 0x20	; 32
     142:	b1 07       	cpc	r27, r17
     144:	d9 f7       	brne	.-10     	;  0x13c
     146:	17 e0       	ldi	r17, 0x07	; 7
     148:	a0 e2       	ldi	r26, 0x20	; 32
     14a:	b3 e0       	ldi	r27, 0x03	; 3
     14c:	01 c0       	rjmp	.+2      	;  0x150
     14e:	1d 92       	st	X+, r1
     150:	ac 36       	cpi	r26, 0x6C	; 108
     152:	b1 07       	cpc	r27, r17
     154:	e1 f7       	brne	.-8      	;  0x14e
     156:	11 e0       	ldi	r17, 0x01	; 1
     158:	c0 e2       	ldi	r28, 0x20	; 32
     15a:	d1 e0       	ldi	r29, 0x01	; 1
     15c:	04 c0       	rjmp	.+8      	;  0x166
     15e:	22 97       	sbiw	r28, 0x02	; 2
     160:	fe 01       	movw	r30, r28
     162:	0e 94 a6 2e 	call	0x5d4c	;  0x5d4c
     166:	c8 31       	cpi	r28, 0x18	; 24
     168:	d1 07       	cpc	r29, r17
     16a:	c9 f7       	brne	.-14     	;  0x15e
     16c:	0e 94 7f 27 	call	0x4efe	;  0x4efe
     170:	5e c0       	rjmp	.+188    	;  0x22e
     172:	46 cf       	rjmp	.-372    	;  0x0
     174:	a0 e0       	ldi	r26, 0x00	; 0
     176:	b0 e0       	ldi	r27, 0x00	; 0
     178:	e0 ec       	ldi	r30, 0xC0	; 192
     17a:	f0 e0       	ldi	r31, 0x00	; 0
     17c:	0c 94 75 2e 	jmp	0x5cea	;  0x5cea
     180:	ec 01       	movw	r28, r24
     182:	a8 80       	ld	r10, Y
     184:	b9 80       	ldd	r11, Y+1	; 0x01
     186:	ca 80       	ldd	r12, Y+2	; 0x02
     188:	db 80       	ldd	r13, Y+3	; 0x03
     18a:	a1 14       	cp	r10, r1
     18c:	b1 04       	cpc	r11, r1
     18e:	c1 04       	cpc	r12, r1
     190:	d1 04       	cpc	r13, r1
     192:	41 f4       	brne	.+16     	;  0x1a4
     194:	84 e2       	ldi	r24, 0x24	; 36
     196:	a8 2e       	mov	r10, r24
     198:	89 ed       	ldi	r24, 0xD9	; 217
     19a:	b8 2e       	mov	r11, r24
     19c:	8b e5       	ldi	r24, 0x5B	; 91
     19e:	c8 2e       	mov	r12, r24
     1a0:	87 e0       	ldi	r24, 0x07	; 7
     1a2:	d8 2e       	mov	r13, r24
     1a4:	c6 01       	movw	r24, r12
     1a6:	b5 01       	movw	r22, r10
     1a8:	2d e1       	ldi	r18, 0x1D	; 29
     1aa:	33 ef       	ldi	r19, 0xF3	; 243
     1ac:	41 e0       	ldi	r20, 0x01	; 1
     1ae:	50 e0       	ldi	r21, 0x00	; 0
     1b0:	0e 94 52 2e 	call	0x5ca4	;  0x5ca4
     1b4:	27 ea       	ldi	r18, 0xA7	; 167
     1b6:	31 e4       	ldi	r19, 0x41	; 65
     1b8:	40 e0       	ldi	r20, 0x00	; 0
     1ba:	50 e0       	ldi	r21, 0x00	; 0
     1bc:	0e 94 ea 2d 	call	0x5bd4	;  0x5bd4
     1c0:	7b 01       	movw	r14, r22
     1c2:	8c 01       	movw	r16, r24
     1c4:	c6 01       	movw	r24, r12
     1c6:	b5 01       	movw	r22, r10
     1c8:	2d e1       	ldi	r18, 0x1D	; 29
     1ca:	33 ef       	ldi	r19, 0xF3	; 243
     1cc:	41 e0       	ldi	r20, 0x01	; 1
     1ce:	50 e0       	ldi	r21, 0x00	; 0
     1d0:	0e 94 52 2e 	call	0x5ca4	;  0x5ca4
     1d4:	ca 01       	movw	r24, r20
     1d6:	b9 01       	movw	r22, r18
     1d8:	2c ee       	ldi	r18, 0xEC	; 236
     1da:	34 ef       	ldi	r19, 0xF4	; 244
     1dc:	4f ef       	ldi	r20, 0xFF	; 255
     1de:	5f ef       	ldi	r21, 0xFF	; 255
     1e0:	0e 94 ea 2d 	call	0x5bd4	;  0x5bd4
     1e4:	6e 0d       	add	r22, r14
     1e6:	7f 1d       	adc	r23, r15
     1e8:	80 1f       	adc	r24, r16
     1ea:	91 1f       	adc	r25, r17
     1ec:	97 ff       	sbrs	r25, 7
     1ee:	04 c0       	rjmp	.+8      	;  0x1f8
     1f0:	61 50       	subi	r22, 0x01	; 1
     1f2:	70 40       	sbci	r23, 0x00	; 0
     1f4:	80 40       	sbci	r24, 0x00	; 0
     1f6:	90 48       	sbci	r25, 0x80	; 128
     1f8:	68 83       	st	Y, r22
     1fa:	79 83       	std	Y+1, r23	; 0x01
     1fc:	8a 83       	std	Y+2, r24	; 0x02
     1fe:	9b 83       	std	Y+3, r25	; 0x03
     200:	9b 01       	movw	r18, r22
     202:	ac 01       	movw	r20, r24
     204:	5f 77       	andi	r21, 0x7F	; 127
     206:	b9 01       	movw	r22, r18
     208:	ca 01       	movw	r24, r20
     20a:	cd b7       	in	r28, 0x3d	; 61
     20c:	de b7       	in	r29, 0x3e	; 62
     20e:	ea e0       	ldi	r30, 0x0A	; 10
     210:	0c 94 91 2e 	jmp	0x5d22	;  0x5d22
     214:	af cf       	rjmp	.-162    	;  0x174
     216:	80 eb       	ldi	r24, 0xB0	; 176
     218:	92 e0       	ldi	r25, 0x02	; 2
     21a:	ac cf       	rjmp	.-168    	;  0x174
     21c:	60 93 b0 02 	sts	0x02B0, r22
     220:	70 93 b1 02 	sts	0x02B1, r23
     224:	80 93 b2 02 	sts	0x02B2, r24
     228:	90 93 b3 02 	sts	0x02B3, r25
     22c:	08 95       	ret
     22e:	f8 94       	cli
     230:	0c 94 aa 2e 	jmp	0x5d54	;  0x5d54
     234:	fb 01       	movw	r30, r22
     236:	dc 01       	movw	r26, r24
     238:	01 90       	ld	r0, Z+
     23a:	0d 92       	st	X+, r0
     23c:	00 20       	and	r0, r0
     23e:	e1 f7       	brne	.-8      	;  0x238
     240:	08 95       	ret
     242:	fb 01       	movw	r30, r22
     244:	dc 01       	movw	r26, r24
     246:	41 50       	subi	r20, 0x01	; 1
     248:	50 40       	sbci	r21, 0x00	; 0
     24a:	30 f0       	brcs	.+12     	;  0x258
     24c:	8d 91       	ld	r24, X+
     24e:	01 90       	ld	r0, Z+
     250:	80 19       	sub	r24, r0
     252:	19 f4       	brne	.+6      	;  0x25a
     254:	00 20       	and	r0, r0
     256:	b9 f7       	brne	.-18     	;  0x246
     258:	88 1b       	sub	r24, r24
     25a:	99 0b       	sbc	r25, r25
     25c:	08 95       	ret
     25e:	fc 01       	movw	r30, r24
     260:	82 ed       	ldi	r24, 0xD2	; 210
     262:	92 e0       	ldi	r25, 0x02	; 2
     264:	91 83       	std	Z+1, r25	; 0x01
     266:	80 83       	st	Z, r24
     268:	08 95       	ret
     26a:	fc 01       	movw	r30, r24
     26c:	66 85       	ldd	r22, Z+14	; 0x0e
     26e:	77 85       	ldd	r23, Z+15	; 0x0f
     270:	80 89       	ldd	r24, Z+16	; 0x10
     272:	91 89       	ldd	r25, Z+17	; 0x11
     274:	0c 94 d7 2b 	jmp	0x57ae	;  0x57ae
     278:	e0 91 20 03 	lds	r30, 0x0320
     27c:	f0 91 21 03 	lds	r31, 0x0321
     280:	a0 81       	ld	r26, Z
     282:	b1 81       	ldd	r27, Z+1	; 0x01
     284:	16 96       	adiw	r26, 0x06	; 6
     286:	2d 91       	ld	r18, X+
     288:	3c 91       	ld	r19, X
     28a:	17 97       	sbiw	r26, 0x07	; 7
     28c:	cf 01       	movw	r24, r30
     28e:	f9 01       	movw	r30, r18
     290:	09 95       	icall
     292:	08 95       	ret
     294:	fc 01       	movw	r30, r24
     296:	82 ed       	ldi	r24, 0xD2	; 210
     298:	92 e0       	ldi	r25, 0x02	; 2
     29a:	91 83       	std	Z+1, r25	; 0x01
     29c:	80 83       	st	Z, r24
     29e:	cf 01       	movw	r24, r30
     2a0:	0c 94 3e 1a 	jmp	0x347c	;  0x347c
     2a4:	9c 01       	movw	r18, r24
     2a6:	80 91 20 03 	lds	r24, 0x0320
     2aa:	90 91 21 03 	lds	r25, 0x0321
     2ae:	89 2b       	or	r24, r25
     2b0:	71 f4       	brne	.+28     	;  0x2ce
     2b2:	30 93 21 03 	sts	0x0321, r19
     2b6:	20 93 20 03 	sts	0x0320, r18
     2ba:	60 e5       	ldi	r22, 0x50	; 80
     2bc:	70 e0       	ldi	r23, 0x00	; 0
     2be:	80 e0       	ldi	r24, 0x00	; 0
     2c0:	90 e0       	ldi	r25, 0x00	; 0
     2c2:	0e 94 71 1f 	call	0x3ee2	;  0x3ee2
     2c6:	8c e3       	ldi	r24, 0x3C	; 60
     2c8:	91 e0       	ldi	r25, 0x01	; 1
     2ca:	0c 94 61 1f 	jmp	0x3ec2	;  0x3ec2
     2ce:	08 95       	ret
     2d0:	0f 93       	push	r16
     2d2:	1f 93       	push	r17
     2d4:	cf 93       	push	r28
     2d6:	df 93       	push	r29
     2d8:	06 2f       	mov	r16, r22
     2da:	ea 01       	movw	r28, r20
     2dc:	12 2f       	mov	r17, r18
     2de:	0e 94 da 1b 	call	0x37b4	;  0x37b4
     2e2:	88 23       	and	r24, r24
     2e4:	99 f0       	breq	.+38     	;  0x30c
     2e6:	80 2f       	mov	r24, r16
     2e8:	0e 94 f7 1b 	call	0x37ee	;  0x37ee
     2ec:	88 23       	and	r24, r24
     2ee:	41 f4       	brne	.+16     	;  0x300
     2f0:	0d c0       	rjmp	.+26     	;  0x30c
     2f2:	88 81       	ld	r24, Y
     2f4:	0e 94 f7 1b 	call	0x37ee	;  0x37ee
     2f8:	88 23       	and	r24, r24
     2fa:	41 f0       	breq	.+16     	;  0x30c
     2fc:	11 50       	subi	r17, 0x01	; 1
     2fe:	21 96       	adiw	r28, 0x01	; 1
     300:	11 23       	and	r17, r17
     302:	b9 f7       	brne	.-18     	;  0x2f2
     304:	0e 94 ee 1b 	call	0x37dc	;  0x37dc
     308:	81 e0       	ldi	r24, 0x01	; 1
     30a:	01 c0       	rjmp	.+2      	;  0x30e
     30c:	80 e0       	ldi	r24, 0x00	; 0
     30e:	df 91       	pop	r29
     310:	cf 91       	pop	r28
     312:	1f 91       	pop	r17
     314:	0f 91       	pop	r16
     316:	08 95       	ret
     318:	df 93       	push	r29
     31a:	cf 93       	push	r28
     31c:	0f 92       	push	r0
     31e:	cd b7       	in	r28, 0x3d	; 61
     320:	de b7       	in	r29, 0x3e	; 62
     322:	49 83       	std	Y+1, r20	; 0x01
     324:	ae 01       	movw	r20, r28
     326:	4f 5f       	subi	r20, 0xFF	; 255
     328:	5f 4f       	sbci	r21, 0xFF	; 255
     32a:	21 e0       	ldi	r18, 0x01	; 1
     32c:	d1 df       	rcall	.-94     	;  0x2d0
     32e:	0f 90       	pop	r0
     330:	cf 91       	pop	r28
     332:	df 91       	pop	r29
     334:	08 95       	ret
     336:	ff 92       	push	r15
     338:	0f 93       	push	r16
     33a:	1f 93       	push	r17
     33c:	cf 93       	push	r28
     33e:	df 93       	push	r29
     340:	f8 2e       	mov	r15, r24
     342:	06 2f       	mov	r16, r22
     344:	ea 01       	movw	r28, r20
     346:	12 2f       	mov	r17, r18
     348:	0e 94 da 1b 	call	0x37b4	;  0x37b4
     34c:	88 23       	and	r24, r24
     34e:	e9 f0       	breq	.+58     	;  0x38a
     350:	80 2f       	mov	r24, r16
     352:	0e 94 f7 1b 	call	0x37ee	;  0x37ee
     356:	88 23       	and	r24, r24
     358:	41 f0       	breq	.+16     	;  0x36a
     35a:	0e 94 ee 1b 	call	0x37dc	;  0x37dc
     35e:	8f 2d       	mov	r24, r15
     360:	81 60       	ori	r24, 0x01	; 1
     362:	0e 94 da 1b 	call	0x37b4	;  0x37b4
     366:	88 23       	and	r24, r24
     368:	59 f4       	brne	.+22     	;  0x380
     36a:	0e 94 ee 1b 	call	0x37dc	;  0x37dc
     36e:	80 e0       	ldi	r24, 0x00	; 0
     370:	0c c0       	rjmp	.+24     	;  0x38a
     372:	11 50       	subi	r17, 0x01	; 1
     374:	80 e0       	ldi	r24, 0x00	; 0
     376:	09 f4       	brne	.+2      	;  0x37a
     378:	81 e0       	ldi	r24, 0x01	; 1
     37a:	0e 94 29 1c 	call	0x3852	;  0x3852
     37e:	89 93       	st	Y+, r24
     380:	11 23       	and	r17, r17
     382:	b9 f7       	brne	.-18     	;  0x372
     384:	0e 94 ee 1b 	call	0x37dc	;  0x37dc
     388:	81 e0       	ldi	r24, 0x01	; 1
     38a:	df 91       	pop	r29
     38c:	cf 91       	pop	r28
     38e:	1f 91       	pop	r17
     390:	0f 91       	pop	r16
     392:	ff 90       	pop	r15
     394:	08 95       	ret
     396:	21 e0       	ldi	r18, 0x01	; 1
     398:	ce cf       	rjmp	.-100    	;  0x336
     39a:	0f 93       	push	r16
     39c:	1f 93       	push	r17
     39e:	df 93       	push	r29
     3a0:	cf 93       	push	r28
     3a2:	00 d0       	rcall	.+0      	;  0x3a4
     3a4:	cd b7       	in	r28, 0x3d	; 61
     3a6:	de b7       	in	r29, 0x3e	; 62
     3a8:	08 2f       	mov	r16, r24
     3aa:	16 2f       	mov	r17, r22
     3ac:	ae 01       	movw	r20, r28
     3ae:	4e 5f       	subi	r20, 0xFE	; 254
     3b0:	5f 4f       	sbci	r21, 0xFF	; 255
     3b2:	f1 df       	rcall	.-30     	;  0x396
     3b4:	1f 5f       	subi	r17, 0xFF	; 255
     3b6:	80 2f       	mov	r24, r16
     3b8:	61 2f       	mov	r22, r17
     3ba:	ae 01       	movw	r20, r28
     3bc:	4f 5f       	subi	r20, 0xFF	; 255
     3be:	5f 4f       	sbci	r21, 0xFF	; 255
     3c0:	ea df       	rcall	.-44     	;  0x396
     3c2:	39 81       	ldd	r19, Y+1	; 0x01
     3c4:	20 e0       	ldi	r18, 0x00	; 0
     3c6:	8a 81       	ldd	r24, Y+2	; 0x02
     3c8:	28 0f       	add	r18, r24
     3ca:	31 1d       	adc	r19, r1
     3cc:	c9 01       	movw	r24, r18
     3ce:	0f 90       	pop	r0
     3d0:	0f 90       	pop	r0
     3d2:	cf 91       	pop	r28
     3d4:	df 91       	pop	r29
     3d6:	1f 91       	pop	r17
     3d8:	0f 91       	pop	r16
     3da:	08 95       	ret
     3dc:	df 93       	push	r29
     3de:	cf 93       	push	r28
     3e0:	0f 92       	push	r0
     3e2:	cd b7       	in	r28, 0x3d	; 61
     3e4:	de b7       	in	r29, 0x3e	; 62
     3e6:	ae 01       	movw	r20, r28
     3e8:	4f 5f       	subi	r20, 0xFF	; 255
     3ea:	5f 4f       	sbci	r21, 0xFF	; 255
     3ec:	d4 df       	rcall	.-88     	;  0x396
     3ee:	89 81       	ldd	r24, Y+1	; 0x01
     3f0:	0f 90       	pop	r0
     3f2:	cf 91       	pop	r28
     3f4:	df 91       	pop	r29
     3f6:	08 95       	ret
     3f8:	fc 01       	movw	r30, r24
     3fa:	82 ed       	ldi	r24, 0xD2	; 210
     3fc:	92 e0       	ldi	r25, 0x02	; 2
     3fe:	91 83       	std	Z+1, r25	; 0x01
     400:	80 83       	st	Z, r24
     402:	08 95       	ret
     404:	2f 92       	push	r2
     406:	3f 92       	push	r3
     408:	4f 92       	push	r4
     40a:	5f 92       	push	r5
     40c:	6f 92       	push	r6
     40e:	7f 92       	push	r7
     410:	8f 92       	push	r8
     412:	9f 92       	push	r9
     414:	af 92       	push	r10
     416:	bf 92       	push	r11
     418:	cf 92       	push	r12
     41a:	df 92       	push	r13
     41c:	ef 92       	push	r14
     41e:	ff 92       	push	r15
     420:	0f 93       	push	r16
     422:	1f 93       	push	r17
     424:	df 93       	push	r29
     426:	cf 93       	push	r28
     428:	00 d0       	rcall	.+0      	;  0x42a
     42a:	00 d0       	rcall	.+0      	;  0x42c
     42c:	cd b7       	in	r28, 0x3d	; 61
     42e:	de b7       	in	r29, 0x3e	; 62
     430:	1c 01       	movw	r2, r24
     432:	49 83       	std	Y+1, r20	; 0x01
     434:	5a 83       	std	Y+2, r21	; 0x02
     436:	6b 83       	std	Y+3, r22	; 0x03
     438:	7c 83       	std	Y+4, r23	; 0x04
     43a:	48 01       	movw	r8, r16
     43c:	59 01       	movw	r10, r18
     43e:	26 01       	movw	r4, r12
     440:	37 01       	movw	r6, r14
     442:	c7 01       	movw	r24, r14
     444:	b6 01       	movw	r22, r12
     446:	0e 94 6d 2d 	call	0x5ada	;  0x5ada
     44a:	7b 01       	movw	r14, r22
     44c:	8c 01       	movw	r16, r24
     44e:	20 e0       	ldi	r18, 0x00	; 0
     450:	30 e0       	ldi	r19, 0x00	; 0
     452:	40 e0       	ldi	r20, 0x00	; 0
     454:	50 e0       	ldi	r21, 0x00	; 0
     456:	0e 94 ff 2c 	call	0x59fe	;  0x59fe
     45a:	18 16       	cp	r1, r24
     45c:	0c f0       	brlt	.+2      	;  0x460
     45e:	46 c0       	rjmp	.+140    	;  0x4ec
     460:	f1 01       	movw	r30, r2
     462:	66 81       	ldd	r22, Z+6	; 0x06
     464:	77 81       	ldd	r23, Z+7	; 0x07
     466:	80 85       	ldd	r24, Z+8	; 0x08
     468:	91 85       	ldd	r25, Z+9	; 0x09
     46a:	a5 01       	movw	r20, r10
     46c:	94 01       	movw	r18, r8
     46e:	0e 94 6e 2a 	call	0x54dc	;  0x54dc
     472:	a8 01       	movw	r20, r16
     474:	97 01       	movw	r18, r14
     476:	0e 94 3c 2b 	call	0x5678	;  0x5678
     47a:	7b 01       	movw	r14, r22
     47c:	8c 01       	movw	r16, r24
     47e:	c3 01       	movw	r24, r6
     480:	b2 01       	movw	r22, r4
     482:	0e 94 39 2b 	call	0x5672	;  0x5672
     486:	9b 01       	movw	r18, r22
     488:	ac 01       	movw	r20, r24
     48a:	c8 01       	movw	r24, r16
     48c:	b7 01       	movw	r22, r14
     48e:	0e 94 0a 2d 	call	0x5a14	;  0x5a14
     492:	9b 01       	movw	r18, r22
     494:	ac 01       	movw	r20, r24
     496:	69 81       	ldd	r22, Y+1	; 0x01
     498:	7a 81       	ldd	r23, Y+2	; 0x02
     49a:	8b 81       	ldd	r24, Y+3	; 0x03
     49c:	9c 81       	ldd	r25, Y+4	; 0x04
     49e:	0e 94 6f 2a 	call	0x54de	;  0x54de
     4a2:	5b 01       	movw	r10, r22
     4a4:	6c 01       	movw	r12, r24
     4a6:	f1 01       	movw	r30, r2
     4a8:	22 85       	ldd	r18, Z+10	; 0x0a
     4aa:	33 85       	ldd	r19, Z+11	; 0x0b
     4ac:	44 85       	ldd	r20, Z+12	; 0x0c
     4ae:	55 85       	ldd	r21, Z+13	; 0x0d
     4b0:	0e 94 ff 2c 	call	0x59fe	;  0x59fe
     4b4:	18 16       	cp	r1, r24
     4b6:	d4 f0       	brlt	.+52     	;  0x4ec
     4b8:	c6 01       	movw	r24, r12
     4ba:	b5 01       	movw	r22, r10
     4bc:	f1 01       	movw	r30, r2
     4be:	22 81       	ldd	r18, Z+2	; 0x02
     4c0:	33 81       	ldd	r19, Z+3	; 0x03
     4c2:	44 81       	ldd	r20, Z+4	; 0x04
     4c4:	55 81       	ldd	r21, Z+5	; 0x05
     4c6:	0e 94 35 2b 	call	0x566a	;  0x566a
     4ca:	87 fd       	sbrc	r24, 7
     4cc:	0f c0       	rjmp	.+30     	;  0x4ec
     4ce:	c8 01       	movw	r24, r16
     4d0:	b7 01       	movw	r22, r14
     4d2:	20 e0       	ldi	r18, 0x00	; 0
     4d4:	30 e0       	ldi	r19, 0x00	; 0
     4d6:	40 e0       	ldi	r20, 0x00	; 0
     4d8:	50 e0       	ldi	r21, 0x00	; 0
     4da:	0e 94 ff 2c 	call	0x59fe	;  0x59fe
     4de:	18 16       	cp	r1, r24
     4e0:	7c f0       	brlt	.+30     	;  0x500
     4e2:	17 fb       	bst	r17, 7
     4e4:	10 95       	com	r17
     4e6:	17 f9       	bld	r17, 7
     4e8:	10 95       	com	r17
     4ea:	0a c0       	rjmp	.+20     	;  0x500
     4ec:	0f 2e       	mov	r0, r31
     4ee:	f0 e0       	ldi	r31, 0x00	; 0
     4f0:	ef 2e       	mov	r14, r31
     4f2:	fc e3       	ldi	r31, 0x3C	; 60
     4f4:	ff 2e       	mov	r15, r31
     4f6:	fc e1       	ldi	r31, 0x1C	; 28
     4f8:	0f 2f       	mov	r16, r31
     4fa:	f6 e4       	ldi	r31, 0x46	; 70
     4fc:	1f 2f       	mov	r17, r31
     4fe:	f0 2d       	mov	r31, r0
     500:	b7 01       	movw	r22, r14
     502:	c8 01       	movw	r24, r16
     504:	0f 90       	pop	r0
     506:	0f 90       	pop	r0
     508:	0f 90       	pop	r0
     50a:	0f 90       	pop	r0
     50c:	cf 91       	pop	r28
     50e:	df 91       	pop	r29
     510:	1f 91       	pop	r17
     512:	0f 91       	pop	r16
     514:	ff 90       	pop	r15
     516:	ef 90       	pop	r14
     518:	df 90       	pop	r13
     51a:	cf 90       	pop	r12
     51c:	bf 90       	pop	r11
     51e:	af 90       	pop	r10
     520:	9f 90       	pop	r9
     522:	8f 90       	pop	r8
     524:	7f 90       	pop	r7
     526:	6f 90       	pop	r6
     528:	5f 90       	pop	r5
     52a:	4f 90       	pop	r4
     52c:	3f 90       	pop	r3
     52e:	2f 90       	pop	r2
     530:	08 95       	ret
     532:	2f 92       	push	r2
     534:	3f 92       	push	r3
     536:	4f 92       	push	r4
     538:	5f 92       	push	r5
     53a:	6f 92       	push	r6
     53c:	7f 92       	push	r7
     53e:	8f 92       	push	r8
     540:	9f 92       	push	r9
     542:	af 92       	push	r10
     544:	bf 92       	push	r11
     546:	cf 92       	push	r12
     548:	df 92       	push	r13
     54a:	ef 92       	push	r14
     54c:	ff 92       	push	r15
     54e:	0f 93       	push	r16
     550:	1f 93       	push	r17
     552:	cf 93       	push	r28
     554:	df 93       	push	r29
     556:	ec 01       	movw	r28, r24
     558:	3a 01       	movw	r6, r20
     55a:	4b 01       	movw	r8, r22
     55c:	18 01       	movw	r2, r16
     55e:	29 01       	movw	r4, r18
     560:	56 01       	movw	r10, r12
     562:	67 01       	movw	r12, r14
     564:	c6 01       	movw	r24, r12
     566:	b5 01       	movw	r22, r10
     568:	0e 94 39 2b 	call	0x5672	;  0x5672
     56c:	7b 01       	movw	r14, r22
     56e:	8c 01       	movw	r16, r24
     570:	20 e0       	ldi	r18, 0x00	; 0
     572:	30 e0       	ldi	r19, 0x00	; 0
     574:	40 e0       	ldi	r20, 0x00	; 0
     576:	50 e0       	ldi	r21, 0x00	; 0
     578:	0e 94 35 2b 	call	0x566a	;  0x566a
     57c:	88 23       	and	r24, r24
     57e:	09 f4       	brne	.+2      	;  0x582
     580:	41 c0       	rjmp	.+130    	;  0x604
     582:	6a 81       	ldd	r22, Y+2	; 0x02
     584:	7b 81       	ldd	r23, Y+3	; 0x03
     586:	8c 81       	ldd	r24, Y+4	; 0x04
     588:	9d 81       	ldd	r25, Y+5	; 0x05
     58a:	a4 01       	movw	r20, r8
     58c:	93 01       	movw	r18, r6
     58e:	0e 94 6e 2a 	call	0x54dc	;  0x54dc
     592:	a8 01       	movw	r20, r16
     594:	97 01       	movw	r18, r14
     596:	0e 94 3c 2b 	call	0x5678	;  0x5678
     59a:	7b 01       	movw	r14, r22
     59c:	8c 01       	movw	r16, r24
     59e:	c6 01       	movw	r24, r12
     5a0:	b5 01       	movw	r22, r10
     5a2:	0e 94 6d 2d 	call	0x5ada	;  0x5ada
     5a6:	9b 01       	movw	r18, r22
     5a8:	ac 01       	movw	r20, r24
     5aa:	c8 01       	movw	r24, r16
     5ac:	b7 01       	movw	r22, r14
     5ae:	0e 94 0a 2d 	call	0x5a14	;  0x5a14
     5b2:	9b 01       	movw	r18, r22
     5b4:	ac 01       	movw	r20, r24
     5b6:	c2 01       	movw	r24, r4
     5b8:	b1 01       	movw	r22, r2
     5ba:	0e 94 6f 2a 	call	0x54de	;  0x54de
     5be:	5b 01       	movw	r10, r22
     5c0:	6c 01       	movw	r12, r24
     5c2:	2e 85       	ldd	r18, Y+14	; 0x0e
     5c4:	3f 85       	ldd	r19, Y+15	; 0x0f
     5c6:	48 89       	ldd	r20, Y+16	; 0x10
     5c8:	59 89       	ldd	r21, Y+17	; 0x11
     5ca:	0e 94 ff 2c 	call	0x59fe	;  0x59fe
     5ce:	18 16       	cp	r1, r24
     5d0:	cc f0       	brlt	.+50     	;  0x604
     5d2:	c6 01       	movw	r24, r12
     5d4:	b5 01       	movw	r22, r10
     5d6:	2e 81       	ldd	r18, Y+6	; 0x06
     5d8:	3f 81       	ldd	r19, Y+7	; 0x07
     5da:	48 85       	ldd	r20, Y+8	; 0x08
     5dc:	59 85       	ldd	r21, Y+9	; 0x09
     5de:	0e 94 35 2b 	call	0x566a	;  0x566a
     5e2:	87 fd       	sbrc	r24, 7
     5e4:	0f c0       	rjmp	.+30     	;  0x604
     5e6:	c8 01       	movw	r24, r16
     5e8:	b7 01       	movw	r22, r14
     5ea:	20 e0       	ldi	r18, 0x00	; 0
     5ec:	30 e0       	ldi	r19, 0x00	; 0
     5ee:	40 e0       	ldi	r20, 0x00	; 0
     5f0:	50 e0       	ldi	r21, 0x00	; 0
     5f2:	0e 94 ff 2c 	call	0x59fe	;  0x59fe
     5f6:	18 16       	cp	r1, r24
     5f8:	7c f0       	brlt	.+30     	;  0x618
     5fa:	17 fb       	bst	r17, 7
     5fc:	10 95       	com	r17
     5fe:	17 f9       	bld	r17, 7
     600:	10 95       	com	r17
     602:	0a c0       	rjmp	.+20     	;  0x618
     604:	0f 2e       	mov	r0, r31
     606:	f0 e0       	ldi	r31, 0x00	; 0
     608:	ef 2e       	mov	r14, r31
     60a:	fc e3       	ldi	r31, 0x3C	; 60
     60c:	ff 2e       	mov	r15, r31
     60e:	fc e1       	ldi	r31, 0x1C	; 28
     610:	0f 2f       	mov	r16, r31
     612:	f6 e4       	ldi	r31, 0x46	; 70
     614:	1f 2f       	mov	r17, r31
     616:	f0 2d       	mov	r31, r0
     618:	b7 01       	movw	r22, r14
     61a:	c8 01       	movw	r24, r16
     61c:	df 91       	pop	r29
     61e:	cf 91       	pop	r28
     620:	1f 91       	pop	r17
     622:	0f 91       	pop	r16
     624:	ff 90       	pop	r15
     626:	ef 90       	pop	r14
     628:	df 90       	pop	r13
     62a:	cf 90       	pop	r12
     62c:	bf 90       	pop	r11
     62e:	af 90       	pop	r10
     630:	9f 90       	pop	r9
     632:	8f 90       	pop	r8
     634:	7f 90       	pop	r7
     636:	6f 90       	pop	r6
     638:	5f 90       	pop	r5
     63a:	4f 90       	pop	r4
     63c:	3f 90       	pop	r3
     63e:	2f 90       	pop	r2
     640:	08 95       	ret
     642:	6f 92       	push	r6
     644:	7f 92       	push	r7
     646:	8f 92       	push	r8
     648:	9f 92       	push	r9
     64a:	af 92       	push	r10
     64c:	bf 92       	push	r11
     64e:	cf 92       	push	r12
     650:	df 92       	push	r13
     652:	ef 92       	push	r14
     654:	ff 92       	push	r15
     656:	0f 93       	push	r16
     658:	1f 93       	push	r17
     65a:	3c 01       	movw	r6, r24
     65c:	6a 01       	movw	r12, r20
     65e:	7b 01       	movw	r14, r22
     660:	48 01       	movw	r8, r16
     662:	59 01       	movw	r10, r18
     664:	fc 01       	movw	r30, r24
     666:	62 81       	ldd	r22, Z+2	; 0x02
     668:	73 81       	ldd	r23, Z+3	; 0x03
     66a:	84 81       	ldd	r24, Z+4	; 0x04
     66c:	95 81       	ldd	r25, Z+5	; 0x05
     66e:	a7 01       	movw	r20, r14
     670:	96 01       	movw	r18, r12
     672:	0e 94 6e 2a 	call	0x54dc	;  0x54dc
     676:	7b 01       	movw	r14, r22
     678:	8c 01       	movw	r16, r24
     67a:	f3 01       	movw	r30, r6
     67c:	66 81       	ldd	r22, Z+6	; 0x06
     67e:	77 81       	ldd	r23, Z+7	; 0x07
     680:	80 85       	ldd	r24, Z+8	; 0x08
     682:	91 85       	ldd	r25, Z+9	; 0x09
     684:	a5 01       	movw	r20, r10
     686:	94 01       	movw	r18, r8
     688:	0e 94 6e 2a 	call	0x54dc	;  0x54dc
     68c:	5b 01       	movw	r10, r22
     68e:	6c 01       	movw	r12, r24
     690:	c8 01       	movw	r24, r16
     692:	b7 01       	movw	r22, r14
     694:	a8 01       	movw	r20, r16
     696:	97 01       	movw	r18, r14
     698:	0e 94 0a 2d 	call	0x5a14	;  0x5a14
     69c:	a6 01       	movw	r20, r12
     69e:	95 01       	movw	r18, r10
     6a0:	0e 94 6f 2a 	call	0x54de	;  0x54de
     6a4:	a6 01       	movw	r20, r12
     6a6:	95 01       	movw	r18, r10
     6a8:	0e 94 6f 2a 	call	0x54de	;  0x54de
     6ac:	0e 94 77 2d 	call	0x5aee	;  0x5aee
     6b0:	f3 01       	movw	r30, r6
     6b2:	22 85       	ldd	r18, Z+10	; 0x0a
     6b4:	33 85       	ldd	r19, Z+11	; 0x0b
     6b6:	44 85       	ldd	r20, Z+12	; 0x0c
     6b8:	55 85       	ldd	r21, Z+13	; 0x0d
     6ba:	0e 94 6e 2a 	call	0x54dc	;  0x54dc
     6be:	7b 01       	movw	r14, r22
     6c0:	8c 01       	movw	r16, r24
     6c2:	20 e0       	ldi	r18, 0x00	; 0
     6c4:	30 e0       	ldi	r19, 0x00	; 0
     6c6:	40 e0       	ldi	r20, 0x00	; 0
     6c8:	50 e0       	ldi	r21, 0x00	; 0
     6ca:	0e 94 ff 2c 	call	0x59fe	;  0x59fe
     6ce:	18 16       	cp	r1, r24
     6d0:	24 f0       	brlt	.+8      	;  0x6da
     6d2:	17 fb       	bst	r17, 7
     6d4:	10 95       	com	r17
     6d6:	17 f9       	bld	r17, 7
     6d8:	10 95       	com	r17
     6da:	b7 01       	movw	r22, r14
     6dc:	c8 01       	movw	r24, r16
     6de:	1f 91       	pop	r17
     6e0:	0f 91       	pop	r16
     6e2:	ff 90       	pop	r15
     6e4:	ef 90       	pop	r14
     6e6:	df 90       	pop	r13
     6e8:	cf 90       	pop	r12
     6ea:	bf 90       	pop	r11
     6ec:	af 90       	pop	r10
     6ee:	9f 90       	pop	r9
     6f0:	8f 90       	pop	r8
     6f2:	7f 90       	pop	r7
     6f4:	6f 90       	pop	r6
     6f6:	08 95       	ret
     6f8:	2f 92       	push	r2
     6fa:	3f 92       	push	r3
     6fc:	4f 92       	push	r4
     6fe:	5f 92       	push	r5
     700:	6f 92       	push	r6
     702:	7f 92       	push	r7
     704:	8f 92       	push	r8
     706:	9f 92       	push	r9
     708:	af 92       	push	r10
     70a:	bf 92       	push	r11
     70c:	cf 92       	push	r12
     70e:	df 92       	push	r13
     710:	ef 92       	push	r14
     712:	ff 92       	push	r15
     714:	0f 93       	push	r16
     716:	1f 93       	push	r17
     718:	df 93       	push	r29
     71a:	cf 93       	push	r28
     71c:	cd b7       	in	r28, 0x3d	; 61
     71e:	de b7       	in	r29, 0x3e	; 62
     720:	a8 97       	sbiw	r28, 0x28	; 40
     722:	0f b6       	in	r0, 0x3f	; 63
     724:	f8 94       	cli
     726:	de bf       	out	0x3e, r29	; 62
     728:	0f be       	out	0x3f, r0	; 63
     72a:	cd bf       	out	0x3d, r28	; 61
     72c:	4b 8b       	std	Y+19, r20	; 0x13
     72e:	5c 8b       	std	Y+20, r21	; 0x14
     730:	6d 8b       	std	Y+21, r22	; 0x15
     732:	7e 8b       	std	Y+22, r23	; 0x16
     734:	0f 8b       	std	Y+23, r16	; 0x17
     736:	18 8f       	std	Y+24, r17	; 0x18
     738:	29 8f       	std	Y+25, r18	; 0x19
     73a:	3a 8f       	std	Y+26, r19	; 0x1a
     73c:	84 96       	adiw	r24, 0x24	; 36
     73e:	9a 83       	std	Y+2, r25	; 0x02
     740:	89 83       	std	Y+1, r24	; 0x01
     742:	1b a2       	std	Y+35, r1	; 0x23
     744:	8c e3       	ldi	r24, 0x3C	; 60
     746:	8c a3       	std	Y+36, r24	; 0x24
     748:	9c e1       	ldi	r25, 0x1C	; 28
     74a:	9d a3       	std	Y+37, r25	; 0x25
     74c:	a6 e4       	ldi	r26, 0x46	; 70
     74e:	ae a3       	std	Y+38, r26	; 0x26
     750:	18 a6       	std	Y+40, r1	; 0x28
     752:	1f a2       	std	Y+39, r1	; 0x27
     754:	e9 81       	ldd	r30, Y+1	; 0x01
     756:	fa 81       	ldd	r31, Y+2	; 0x02
     758:	00 81       	ld	r16, Z
     75a:	11 81       	ldd	r17, Z+1	; 0x01
     75c:	d8 01       	movw	r26, r16
     75e:	1a 96       	adiw	r26, 0x0a	; 10
     760:	8d 91       	ld	r24, X+
     762:	9d 91       	ld	r25, X+
     764:	0d 90       	ld	r0, X+
     766:	bc 91       	ld	r27, X
     768:	a0 2d       	mov	r26, r0
     76a:	8b 83       	std	Y+3, r24	; 0x03
     76c:	9c 83       	std	Y+4, r25	; 0x04
     76e:	ad 83       	std	Y+5, r26	; 0x05
     770:	be 83       	std	Y+6, r27	; 0x06
     772:	d8 01       	movw	r26, r16
     774:	12 96       	adiw	r26, 0x02	; 2
     776:	8d 91       	ld	r24, X+
     778:	9d 91       	ld	r25, X+
     77a:	0d 90       	ld	r0, X+
     77c:	bc 91       	ld	r27, X
     77e:	a0 2d       	mov	r26, r0
     780:	8f 83       	std	Y+7, r24	; 0x07
     782:	98 87       	std	Y+8, r25	; 0x08
     784:	a9 87       	std	Y+9, r26	; 0x09
     786:	ba 87       	std	Y+10, r27	; 0x0a
     788:	6b 81       	ldd	r22, Y+3	; 0x03
     78a:	7c 81       	ldd	r23, Y+4	; 0x04
     78c:	8d 81       	ldd	r24, Y+5	; 0x05
     78e:	9e 81       	ldd	r25, Y+6	; 0x06
     790:	2f 81       	ldd	r18, Y+7	; 0x07
     792:	38 85       	ldd	r19, Y+8	; 0x08
     794:	49 85       	ldd	r20, Y+9	; 0x09
     796:	5a 85       	ldd	r21, Y+10	; 0x0a
     798:	0e 94 6e 2a 	call	0x54dc	;  0x54dc
     79c:	6b 8f       	std	Y+27, r22	; 0x1b
     79e:	7c 8f       	std	Y+28, r23	; 0x1c
     7a0:	8d 8f       	std	Y+29, r24	; 0x1d
     7a2:	9e 8f       	std	Y+30, r25	; 0x1e
     7a4:	d8 01       	movw	r26, r16
     7a6:	1e 96       	adiw	r26, 0x0e	; 14
     7a8:	8d 91       	ld	r24, X+
     7aa:	9d 91       	ld	r25, X+
     7ac:	0d 90       	ld	r0, X+
     7ae:	bc 91       	ld	r27, X
     7b0:	a0 2d       	mov	r26, r0
     7b2:	8b 87       	std	Y+11, r24	; 0x0b
     7b4:	9c 87       	std	Y+12, r25	; 0x0c
     7b6:	ad 87       	std	Y+13, r26	; 0x0d
     7b8:	be 87       	std	Y+14, r27	; 0x0e
     7ba:	d8 01       	movw	r26, r16
     7bc:	16 96       	adiw	r26, 0x06	; 6
     7be:	8d 91       	ld	r24, X+
     7c0:	9d 91       	ld	r25, X+
     7c2:	0d 90       	ld	r0, X+
     7c4:	bc 91       	ld	r27, X
     7c6:	a0 2d       	mov	r26, r0
     7c8:	8f 87       	std	Y+15, r24	; 0x0f
     7ca:	98 8b       	std	Y+16, r25	; 0x10
     7cc:	a9 8b       	std	Y+17, r26	; 0x11
     7ce:	ba 8b       	std	Y+18, r27	; 0x12
     7d0:	6b 85       	ldd	r22, Y+11	; 0x0b
     7d2:	7c 85       	ldd	r23, Y+12	; 0x0c
     7d4:	8d 85       	ldd	r24, Y+13	; 0x0d
     7d6:	9e 85       	ldd	r25, Y+14	; 0x0e
     7d8:	2f 85       	ldd	r18, Y+15	; 0x0f
     7da:	38 89       	ldd	r19, Y+16	; 0x10
     7dc:	49 89       	ldd	r20, Y+17	; 0x11
     7de:	5a 89       	ldd	r21, Y+18	; 0x12
     7e0:	0e 94 6e 2a 	call	0x54dc	;  0x54dc
     7e4:	6f 8f       	std	Y+31, r22	; 0x1f
     7e6:	78 a3       	std	Y+32, r23	; 0x20
     7e8:	89 a3       	std	Y+33, r24	; 0x21
     7ea:	9a a3       	std	Y+34, r25	; 0x22
     7ec:	6b 89       	ldd	r22, Y+19	; 0x13
     7ee:	7c 89       	ldd	r23, Y+20	; 0x14
     7f0:	8d 89       	ldd	r24, Y+21	; 0x15
     7f2:	9e 89       	ldd	r25, Y+22	; 0x16
     7f4:	2f 81       	ldd	r18, Y+7	; 0x07
     7f6:	38 85       	ldd	r19, Y+8	; 0x08
     7f8:	49 85       	ldd	r20, Y+9	; 0x09
     7fa:	5a 85       	ldd	r21, Y+10	; 0x0a
     7fc:	0e 94 6e 2a 	call	0x54dc	;  0x54dc
     800:	5b 01       	movw	r10, r22
     802:	6c 01       	movw	r12, r24
     804:	6b 89       	ldd	r22, Y+19	; 0x13
     806:	7c 89       	ldd	r23, Y+20	; 0x14
     808:	8d 89       	ldd	r24, Y+21	; 0x15
     80a:	9e 89       	ldd	r25, Y+22	; 0x16
     80c:	2f 85       	ldd	r18, Y+15	; 0x0f
     80e:	38 89       	ldd	r19, Y+16	; 0x10
     810:	49 89       	ldd	r20, Y+17	; 0x11
     812:	5a 89       	ldd	r21, Y+18	; 0x12
     814:	0e 94 6e 2a 	call	0x54dc	;  0x54dc
     818:	3b 01       	movw	r6, r22
     81a:	4c 01       	movw	r8, r24
     81c:	c6 01       	movw	r24, r12
     81e:	b5 01       	movw	r22, r10
     820:	2b 8d       	ldd	r18, Y+27	; 0x1b
     822:	3c 8d       	ldd	r19, Y+28	; 0x1c
     824:	4d 8d       	ldd	r20, Y+29	; 0x1d
     826:	5e 8d       	ldd	r21, Y+30	; 0x1e
     828:	0e 94 0a 2d 	call	0x5a14	;  0x5a14
     82c:	7b 01       	movw	r14, r22
     82e:	8c 01       	movw	r16, r24
     830:	c4 01       	movw	r24, r8
     832:	b3 01       	movw	r22, r6
     834:	2f 8d       	ldd	r18, Y+31	; 0x1f
     836:	38 a1       	ldd	r19, Y+32	; 0x20
     838:	49 a1       	ldd	r20, Y+33	; 0x21
     83a:	5a a1       	ldd	r21, Y+34	; 0x22
     83c:	0e 94 0a 2d 	call	0x5a14	;  0x5a14
     840:	9b 01       	movw	r18, r22
     842:	ac 01       	movw	r20, r24
     844:	c8 01       	movw	r24, r16
     846:	b7 01       	movw	r22, r14
     848:	0e 94 6f 2a 	call	0x54de	;  0x54de
     84c:	1b 01       	movw	r2, r22
     84e:	2c 01       	movw	r4, r24
     850:	20 e0       	ldi	r18, 0x00	; 0
     852:	30 e0       	ldi	r19, 0x00	; 0
     854:	40 e0       	ldi	r20, 0x00	; 0
     856:	50 e0       	ldi	r21, 0x00	; 0
     858:	0e 94 35 2b 	call	0x566a	;  0x566a
     85c:	18 16       	cp	r1, r24
     85e:	6c f0       	brlt	.+26     	;  0x87a
     860:	c6 01       	movw	r24, r12
     862:	b5 01       	movw	r22, r10
     864:	a6 01       	movw	r20, r12
     866:	95 01       	movw	r18, r10
     868:	0e 94 0a 2d 	call	0x5a14	;  0x5a14
     86c:	7b 01       	movw	r14, r22
     86e:	8c 01       	movw	r16, r24
     870:	c4 01       	movw	r24, r8
     872:	b3 01       	movw	r22, r6
     874:	a4 01       	movw	r20, r8
     876:	93 01       	movw	r18, r6
     878:	44 c0       	rjmp	.+136    	;  0x902
     87a:	6b 8d       	ldd	r22, Y+27	; 0x1b
     87c:	7c 8d       	ldd	r23, Y+28	; 0x1c
     87e:	8d 8d       	ldd	r24, Y+29	; 0x1d
     880:	9e 8d       	ldd	r25, Y+30	; 0x1e
     882:	9b 01       	movw	r18, r22
     884:	ac 01       	movw	r20, r24
     886:	0e 94 0a 2d 	call	0x5a14	;  0x5a14
     88a:	7b 01       	movw	r14, r22
     88c:	8c 01       	movw	r16, r24
     88e:	6f 8d       	ldd	r22, Y+31	; 0x1f
     890:	78 a1       	ldd	r23, Y+32	; 0x20
     892:	89 a1       	ldd	r24, Y+33	; 0x21
     894:	9a a1       	ldd	r25, Y+34	; 0x22
     896:	9b 01       	movw	r18, r22
     898:	ac 01       	movw	r20, r24
     89a:	0e 94 0a 2d 	call	0x5a14	;  0x5a14
     89e:	9b 01       	movw	r18, r22
     8a0:	ac 01       	movw	r20, r24
     8a2:	c8 01       	movw	r24, r16
     8a4:	b7 01       	movw	r22, r14
     8a6:	0e 94 6f 2a 	call	0x54de	;  0x54de
     8aa:	7b 01       	movw	r14, r22
     8ac:	8c 01       	movw	r16, r24
     8ae:	a2 01       	movw	r20, r4
     8b0:	91 01       	movw	r18, r2
     8b2:	0e 94 35 2b 	call	0x566a	;  0x566a
     8b6:	18 16       	cp	r1, r24
     8b8:	5c f1       	brlt	.+86     	;  0x910
     8ba:	6b 89       	ldd	r22, Y+19	; 0x13
     8bc:	7c 89       	ldd	r23, Y+20	; 0x14
     8be:	8d 89       	ldd	r24, Y+21	; 0x15
     8c0:	9e 89       	ldd	r25, Y+22	; 0x16
     8c2:	2b 81       	ldd	r18, Y+3	; 0x03
     8c4:	3c 81       	ldd	r19, Y+4	; 0x04
     8c6:	4d 81       	ldd	r20, Y+5	; 0x05
     8c8:	5e 81       	ldd	r21, Y+6	; 0x06
     8ca:	0e 94 6e 2a 	call	0x54dc	;  0x54dc
     8ce:	7b 01       	movw	r14, r22
     8d0:	8c 01       	movw	r16, r24
     8d2:	6b 89       	ldd	r22, Y+19	; 0x13
     8d4:	7c 89       	ldd	r23, Y+20	; 0x14
     8d6:	8d 89       	ldd	r24, Y+21	; 0x15
     8d8:	9e 89       	ldd	r25, Y+22	; 0x16
     8da:	2b 85       	ldd	r18, Y+11	; 0x0b
     8dc:	3c 85       	ldd	r19, Y+12	; 0x0c
     8de:	4d 85       	ldd	r20, Y+13	; 0x0d
     8e0:	5e 85       	ldd	r21, Y+14	; 0x0e
     8e2:	0e 94 6e 2a 	call	0x54dc	;  0x54dc
     8e6:	5b 01       	movw	r10, r22
     8e8:	6c 01       	movw	r12, r24
     8ea:	c8 01       	movw	r24, r16
     8ec:	b7 01       	movw	r22, r14
     8ee:	a8 01       	movw	r20, r16
     8f0:	97 01       	movw	r18, r14
     8f2:	0e 94 0a 2d 	call	0x5a14	;  0x5a14
     8f6:	7b 01       	movw	r14, r22
     8f8:	8c 01       	movw	r16, r24
     8fa:	c6 01       	movw	r24, r12
     8fc:	b5 01       	movw	r22, r10
     8fe:	a6 01       	movw	r20, r12
     900:	95 01       	movw	r18, r10
     902:	0e 94 0a 2d 	call	0x5a14	;  0x5a14
     906:	9b 01       	movw	r18, r22
     908:	ac 01       	movw	r20, r24
     90a:	c8 01       	movw	r24, r16
     90c:	b7 01       	movw	r22, r14
     90e:	4c c0       	rjmp	.+152    	;  0x9a8
     910:	c2 01       	movw	r24, r4
     912:	b1 01       	movw	r22, r2
     914:	a8 01       	movw	r20, r16
     916:	97 01       	movw	r18, r14
     918:	0e 94 3c 2b 	call	0x5678	;  0x5678
     91c:	7b 01       	movw	r14, r22
     91e:	8c 01       	movw	r16, r24
     920:	2b 8d       	ldd	r18, Y+27	; 0x1b
     922:	3c 8d       	ldd	r19, Y+28	; 0x1c
     924:	4d 8d       	ldd	r20, Y+29	; 0x1d
     926:	5e 8d       	ldd	r21, Y+30	; 0x1e
     928:	0e 94 0a 2d 	call	0x5a14	;  0x5a14
     92c:	5b 01       	movw	r10, r22
     92e:	6c 01       	movw	r12, r24
     930:	c8 01       	movw	r24, r16
     932:	b7 01       	movw	r22, r14
     934:	2f 8d       	ldd	r18, Y+31	; 0x1f
     936:	38 a1       	ldd	r19, Y+32	; 0x20
     938:	49 a1       	ldd	r20, Y+33	; 0x21
     93a:	5a a1       	ldd	r21, Y+34	; 0x22
     93c:	0e 94 0a 2d 	call	0x5a14	;  0x5a14
     940:	7b 01       	movw	r14, r22
     942:	8c 01       	movw	r16, r24
     944:	c6 01       	movw	r24, r12
     946:	b5 01       	movw	r22, r10
     948:	2f 81       	ldd	r18, Y+7	; 0x07
     94a:	38 85       	ldd	r19, Y+8	; 0x08
     94c:	49 85       	ldd	r20, Y+9	; 0x09
     94e:	5a 85       	ldd	r21, Y+10	; 0x0a
     950:	0e 94 6f 2a 	call	0x54de	;  0x54de
     954:	2b 89       	ldd	r18, Y+19	; 0x13
     956:	3c 89       	ldd	r19, Y+20	; 0x14
     958:	4d 89       	ldd	r20, Y+21	; 0x15
     95a:	5e 89       	ldd	r21, Y+22	; 0x16
     95c:	0e 94 6e 2a 	call	0x54dc	;  0x54dc
     960:	5b 01       	movw	r10, r22
     962:	6c 01       	movw	r12, r24
     964:	c8 01       	movw	r24, r16
     966:	b7 01       	movw	r22, r14
     968:	2f 85       	ldd	r18, Y+15	; 0x0f
     96a:	38 89       	ldd	r19, Y+16	; 0x10
     96c:	49 89       	ldd	r20, Y+17	; 0x11
     96e:	5a 89       	ldd	r21, Y+18	; 0x12
     970:	0e 94 6f 2a 	call	0x54de	;  0x54de
     974:	2f 89       	ldd	r18, Y+23	; 0x17
     976:	38 8d       	ldd	r19, Y+24	; 0x18
     978:	49 8d       	ldd	r20, Y+25	; 0x19
     97a:	5a 8d       	ldd	r21, Y+26	; 0x1a
     97c:	0e 94 6e 2a 	call	0x54dc	;  0x54dc
     980:	7b 01       	movw	r14, r22
     982:	8c 01       	movw	r16, r24
     984:	c6 01       	movw	r24, r12
     986:	b5 01       	movw	r22, r10
     988:	a6 01       	movw	r20, r12
     98a:	95 01       	movw	r18, r10
     98c:	0e 94 0a 2d 	call	0x5a14	;  0x5a14
     990:	5b 01       	movw	r10, r22
     992:	6c 01       	movw	r12, r24
     994:	c8 01       	movw	r24, r16
     996:	b7 01       	movw	r22, r14
     998:	a8 01       	movw	r20, r16
     99a:	97 01       	movw	r18, r14
     99c:	0e 94 0a 2d 	call	0x5a14	;  0x5a14
     9a0:	9b 01       	movw	r18, r22
     9a2:	ac 01       	movw	r20, r24
     9a4:	c6 01       	movw	r24, r12
     9a6:	b5 01       	movw	r22, r10
     9a8:	0e 94 6f 2a 	call	0x54de	;  0x54de
     9ac:	0e 94 77 2d 	call	0x5aee	;  0x5aee
     9b0:	7b 01       	movw	r14, r22
     9b2:	8c 01       	movw	r16, r24
     9b4:	2b a1       	ldd	r18, Y+35	; 0x23
     9b6:	3c a1       	ldd	r19, Y+36	; 0x24
     9b8:	4d a1       	ldd	r20, Y+37	; 0x25
     9ba:	5e a1       	ldd	r21, Y+38	; 0x26
     9bc:	0e 94 35 2b 	call	0x566a	;  0x566a
     9c0:	88 23       	and	r24, r24
     9c2:	24 f4       	brge	.+8      	;  0x9cc
     9c4:	eb a2       	std	Y+35, r14	; 0x23
     9c6:	fc a2       	std	Y+36, r15	; 0x24
     9c8:	0d a3       	std	Y+37, r16	; 0x25
     9ca:	1e a3       	std	Y+38, r17	; 0x26
     9cc:	ef a1       	ldd	r30, Y+39	; 0x27
     9ce:	f8 a5       	ldd	r31, Y+40	; 0x28
     9d0:	31 96       	adiw	r30, 0x01	; 1
     9d2:	f8 a7       	std	Y+40, r31	; 0x28
     9d4:	ef a3       	std	Y+39, r30	; 0x27
     9d6:	89 81       	ldd	r24, Y+1	; 0x01
     9d8:	9a 81       	ldd	r25, Y+2	; 0x02
     9da:	02 96       	adiw	r24, 0x02	; 2
     9dc:	9a 83       	std	Y+2, r25	; 0x02
     9de:	89 83       	std	Y+1, r24	; 0x01
     9e0:	36 97       	sbiw	r30, 0x06	; 6
     9e2:	09 f0       	breq	.+2      	;  0x9e6
     9e4:	b7 ce       	rjmp	.-658    	;  0x754
     9e6:	2b a1       	ldd	r18, Y+35	; 0x23
     9e8:	3c a1       	ldd	r19, Y+36	; 0x24
     9ea:	4d a1       	ldd	r20, Y+37	; 0x25
     9ec:	5e a1       	ldd	r21, Y+38	; 0x26
     9ee:	b9 01       	movw	r22, r18
     9f0:	ca 01       	movw	r24, r20
     9f2:	a8 96       	adiw	r28, 0x28	; 40
     9f4:	0f b6       	in	r0, 0x3f	; 63
     9f6:	f8 94       	cli
     9f8:	de bf       	out	0x3e, r29	; 62
     9fa:	0f be       	out	0x3f, r0	; 63
     9fc:	cd bf       	out	0x3d, r28	; 61
     9fe:	cf 91       	pop	r28
     a00:	df 91       	pop	r29
     a02:	1f 91       	pop	r17
     a04:	0f 91       	pop	r16
     a06:	ff 90       	pop	r15
     a08:	ef 90       	pop	r14
     a0a:	df 90       	pop	r13
     a0c:	cf 90       	pop	r12
     a0e:	bf 90       	pop	r11
     a10:	af 90       	pop	r10
     a12:	9f 90       	pop	r9
     a14:	8f 90       	pop	r8
     a16:	7f 90       	pop	r7
     a18:	6f 90       	pop	r6
     a1a:	5f 90       	pop	r5
     a1c:	4f 90       	pop	r4
     a1e:	3f 90       	pop	r3
     a20:	2f 90       	pop	r2
     a22:	08 95       	ret
     a24:	ef 92       	push	r14
     a26:	ff 92       	push	r15
     a28:	0f 93       	push	r16
     a2a:	1f 93       	push	r17
     a2c:	0e 94 c7 19 	call	0x338e	;  0x338e
     a30:	7b 01       	movw	r14, r22
     a32:	8c 01       	movw	r16, r24
     a34:	0e 94 c7 19 	call	0x338e	;  0x338e
     a38:	9b 01       	movw	r18, r22
     a3a:	ac 01       	movw	r20, r24
     a3c:	c8 01       	movw	r24, r16
     a3e:	b7 01       	movw	r22, r14
     a40:	0e 94 6f 2a 	call	0x54de	;  0x54de
     a44:	20 e0       	ldi	r18, 0x00	; 0
     a46:	30 e0       	ldi	r19, 0x00	; 0
     a48:	40 e8       	ldi	r20, 0x80	; 128
     a4a:	5f e3       	ldi	r21, 0x3F	; 63
     a4c:	0e 94 6e 2a 	call	0x54dc	;  0x54dc
     a50:	1f 91       	pop	r17
     a52:	0f 91       	pop	r16
     a54:	ff 90       	pop	r15
     a56:	ef 90       	pop	r14
     a58:	08 95       	ret
     a5a:	0f 93       	push	r16
     a5c:	1f 93       	push	r17
     a5e:	8c 01       	movw	r16, r24
     a60:	fc 01       	movw	r30, r24
     a62:	10 82       	st	Z, r1
     a64:	11 82       	std	Z+1, r1	; 0x01
     a66:	0e 94 c7 19 	call	0x338e	;  0x338e
     a6a:	20 e0       	ldi	r18, 0x00	; 0
     a6c:	30 e0       	ldi	r19, 0x00	; 0
     a6e:	4e e7       	ldi	r20, 0x7E	; 126
     a70:	53 e4       	ldi	r21, 0x43	; 67
     a72:	0e 94 0a 2d 	call	0x5a14	;  0x5a14
     a76:	0e 94 a9 2b 	call	0x5752	;  0x5752
     a7a:	f8 01       	movw	r30, r16
     a7c:	62 83       	std	Z+2, r22	; 0x02
     a7e:	c8 01       	movw	r24, r16
     a80:	d1 df       	rcall	.-94     	;  0xa24
     a82:	20 e0       	ldi	r18, 0x00	; 0
     a84:	30 e0       	ldi	r19, 0x00	; 0
     a86:	40 e2       	ldi	r20, 0x20	; 32
     a88:	51 e4       	ldi	r21, 0x41	; 65
     a8a:	0e 94 0a 2d 	call	0x5a14	;  0x5a14
     a8e:	0e 94 a4 2b 	call	0x5748	;  0x5748
     a92:	f8 01       	movw	r30, r16
     a94:	63 83       	std	Z+3, r22	; 0x03
     a96:	c8 01       	movw	r24, r16
     a98:	c5 df       	rcall	.-118    	;  0xa24
     a9a:	20 e0       	ldi	r18, 0x00	; 0
     a9c:	30 e0       	ldi	r19, 0x00	; 0
     a9e:	40 e2       	ldi	r20, 0x20	; 32
     aa0:	51 e4       	ldi	r21, 0x41	; 65
     aa2:	0e 94 0a 2d 	call	0x5a14	;  0x5a14
     aa6:	0e 94 a4 2b 	call	0x5748	;  0x5748
     aaa:	f8 01       	movw	r30, r16
     aac:	64 83       	std	Z+4, r22	; 0x04
     aae:	1f 91       	pop	r17
     ab0:	0f 91       	pop	r16
     ab2:	08 95       	ret
     ab4:	6f 92       	push	r6
     ab6:	7f 92       	push	r7
     ab8:	8f 92       	push	r8
     aba:	9f 92       	push	r9
     abc:	af 92       	push	r10
     abe:	bf 92       	push	r11
     ac0:	cf 92       	push	r12
     ac2:	df 92       	push	r13
     ac4:	ef 92       	push	r14
     ac6:	ff 92       	push	r15
     ac8:	0f 93       	push	r16
     aca:	1f 93       	push	r17
     acc:	4c 01       	movw	r8, r24
     ace:	3b 01       	movw	r6, r22
     ad0:	a2 db       	rcall	.-2236   	;  0x216
     ad2:	7b 01       	movw	r14, r22
     ad4:	8c 01       	movw	r16, r24
     ad6:	00 d0       	rcall	.+0      	;  0xad8
     ad8:	00 d0       	rcall	.+0      	;  0xada
     ada:	cd b6       	in	r12, 0x3d	; 61
     adc:	de b6       	in	r13, 0x3e	; 62
     ade:	08 94       	sec
     ae0:	c1 1c       	adc	r12, r1
     ae2:	d1 1c       	adc	r13, r1
     ae4:	f3 01       	movw	r30, r6
     ae6:	60 85       	ldd	r22, Z+8	; 0x08
     ae8:	71 85       	ldd	r23, Z+9	; 0x09
     aea:	82 85       	ldd	r24, Z+10	; 0x0a
     aec:	93 85       	ldd	r25, Z+11	; 0x0b
     aee:	0e 94 a4 2b 	call	0x5748	;  0x5748
     af2:	f6 01       	movw	r30, r12
     af4:	60 83       	st	Z, r22
     af6:	71 83       	std	Z+1, r23	; 0x01
     af8:	82 83       	std	Z+2, r24	; 0x02
     afa:	93 83       	std	Z+3, r25	; 0x03
     afc:	c8 01       	movw	r24, r16
     afe:	b7 01       	movw	r22, r14
     b00:	20 e0       	ldi	r18, 0x00	; 0
     b02:	30 e0       	ldi	r19, 0x00	; 0
     b04:	40 e0       	ldi	r20, 0x00	; 0
     b06:	50 e0       	ldi	r21, 0x00	; 0
     b08:	f1 e0       	ldi	r31, 0x01	; 1
     b0a:	ef 2e       	mov	r14, r31
     b0c:	f1 2c       	mov	r15, r1
     b0e:	01 2d       	mov	r16, r1
     b10:	11 2d       	mov	r17, r1
     b12:	aa 24       	eor	r10, r10
     b14:	bb 24       	eor	r11, r11
     b16:	65 01       	movw	r12, r10
     b18:	0e 94 38 27 	call	0x4e70	;  0x4e70
     b1c:	f4 01       	movw	r30, r8
     b1e:	60 83       	st	Z, r22
     b20:	0f 90       	pop	r0
     b22:	0f 90       	pop	r0
     b24:	0f 90       	pop	r0
     b26:	0f 90       	pop	r0
     b28:	76 db       	rcall	.-2324   	;  0x216
     b2a:	7b 01       	movw	r14, r22
     b2c:	8c 01       	movw	r16, r24
     b2e:	00 d0       	rcall	.+0      	;  0xb30
     b30:	00 d0       	rcall	.+0      	;  0xb32
     b32:	cd b6       	in	r12, 0x3d	; 61
     b34:	de b6       	in	r13, 0x3e	; 62
     b36:	08 94       	sec
     b38:	c1 1c       	adc	r12, r1
     b3a:	d1 1c       	adc	r13, r1
     b3c:	f3 01       	movw	r30, r6
     b3e:	64 85       	ldd	r22, Z+12	; 0x0c
     b40:	75 85       	ldd	r23, Z+13	; 0x0d
     b42:	86 85       	ldd	r24, Z+14	; 0x0e
     b44:	97 85       	ldd	r25, Z+15	; 0x0f
     b46:	0e 94 a4 2b 	call	0x5748	;  0x5748
     b4a:	f6 01       	movw	r30, r12
     b4c:	60 83       	st	Z, r22
     b4e:	71 83       	std	Z+1, r23	; 0x01
     b50:	82 83       	std	Z+2, r24	; 0x02
     b52:	93 83       	std	Z+3, r25	; 0x03
     b54:	c8 01       	movw	r24, r16
     b56:	b7 01       	movw	r22, r14
     b58:	20 e0       	ldi	r18, 0x00	; 0
     b5a:	30 e0       	ldi	r19, 0x00	; 0
     b5c:	40 e0       	ldi	r20, 0x00	; 0
     b5e:	50 e0       	ldi	r21, 0x00	; 0
     b60:	e1 e0       	ldi	r30, 0x01	; 1
     b62:	ee 2e       	mov	r14, r30
     b64:	f1 2c       	mov	r15, r1
     b66:	01 2d       	mov	r16, r1
     b68:	11 2d       	mov	r17, r1
     b6a:	aa 24       	eor	r10, r10
     b6c:	bb 24       	eor	r11, r11
     b6e:	65 01       	movw	r12, r10
     b70:	0e 94 38 27 	call	0x4e70	;  0x4e70
     b74:	f4 01       	movw	r30, r8
     b76:	61 83       	std	Z+1, r22	; 0x01
     b78:	0f 90       	pop	r0
     b7a:	0f 90       	pop	r0
     b7c:	0f 90       	pop	r0
     b7e:	0f 90       	pop	r0
     b80:	0e 94 c7 19 	call	0x338e	;  0x338e
     b84:	20 e0       	ldi	r18, 0x00	; 0
     b86:	30 e0       	ldi	r19, 0x00	; 0
     b88:	4e e7       	ldi	r20, 0x7E	; 126
     b8a:	53 e4       	ldi	r21, 0x43	; 67
     b8c:	0e 94 0a 2d 	call	0x5a14	;  0x5a14
     b90:	0e 94 a9 2b 	call	0x5752	;  0x5752
     b94:	f4 01       	movw	r30, r8
     b96:	62 83       	std	Z+2, r22	; 0x02
     b98:	c4 01       	movw	r24, r8
     b9a:	44 df       	rcall	.-376    	;  0xa24
     b9c:	20 e0       	ldi	r18, 0x00	; 0
     b9e:	30 e0       	ldi	r19, 0x00	; 0
     ba0:	40 e2       	ldi	r20, 0x20	; 32
     ba2:	51 e4       	ldi	r21, 0x41	; 65
     ba4:	0e 94 0a 2d 	call	0x5a14	;  0x5a14
     ba8:	0e 94 a4 2b 	call	0x5748	;  0x5748
     bac:	f4 01       	movw	r30, r8
     bae:	63 83       	std	Z+3, r22	; 0x03
     bb0:	c4 01       	movw	r24, r8
     bb2:	38 df       	rcall	.-400    	;  0xa24
     bb4:	20 e0       	ldi	r18, 0x00	; 0
     bb6:	30 e0       	ldi	r19, 0x00	; 0
     bb8:	40 e2       	ldi	r20, 0x20	; 32
     bba:	51 e4       	ldi	r21, 0x41	; 65
     bbc:	0e 94 0a 2d 	call	0x5a14	;  0x5a14
     bc0:	0e 94 a4 2b 	call	0x5748	;  0x5748
     bc4:	f4 01       	movw	r30, r8
     bc6:	64 83       	std	Z+4, r22	; 0x04
     bc8:	1f 91       	pop	r17
     bca:	0f 91       	pop	r16
     bcc:	ff 90       	pop	r15
     bce:	ef 90       	pop	r14
     bd0:	df 90       	pop	r13
     bd2:	cf 90       	pop	r12
     bd4:	bf 90       	pop	r11
     bd6:	af 90       	pop	r10
     bd8:	9f 90       	pop	r9
     bda:	8f 90       	pop	r8
     bdc:	7f 90       	pop	r7
     bde:	6f 90       	pop	r6
     be0:	08 95       	ret
     be2:	4f 92       	push	r4
     be4:	5f 92       	push	r5
     be6:	6f 92       	push	r6
     be8:	7f 92       	push	r7
     bea:	8f 92       	push	r8
     bec:	9f 92       	push	r9
     bee:	af 92       	push	r10
     bf0:	bf 92       	push	r11
     bf2:	cf 92       	push	r12
     bf4:	df 92       	push	r13
     bf6:	ef 92       	push	r14
     bf8:	ff 92       	push	r15
     bfa:	0f 93       	push	r16
     bfc:	1f 93       	push	r17
     bfe:	cf 93       	push	r28
     c00:	df 93       	push	r29
     c02:	ec 01       	movw	r28, r24
     c04:	c4 5b       	subi	r28, 0xB4	; 180
     c06:	dd 4f       	sbci	r29, 0xFD	; 253
     c08:	68 81       	ld	r22, Y
     c0a:	79 81       	ldd	r23, Y+1	; 0x01
     c0c:	8a 81       	ldd	r24, Y+2	; 0x02
     c0e:	9b 81       	ldd	r25, Y+3	; 0x03
     c10:	cc 54       	subi	r28, 0x4C	; 76
     c12:	d2 40       	sbci	r29, 0x02	; 2
     c14:	0e 94 d7 2b 	call	0x57ae	;  0x57ae
     c18:	6b 01       	movw	r12, r22
     c1a:	7c 01       	movw	r14, r24
     c1c:	32 e2       	ldi	r19, 0x22	; 34
     c1e:	43 2e       	mov	r4, r19
     c20:	32 e0       	ldi	r19, 0x02	; 2
     c22:	53 2e       	mov	r5, r19
     c24:	4c 0e       	add	r4, r28
     c26:	5d 1e       	adc	r5, r29
     c28:	f2 01       	movw	r30, r4
     c2a:	60 83       	st	Z, r22
     c2c:	71 83       	std	Z+1, r23	; 0x01
     c2e:	82 83       	std	Z+2, r24	; 0x02
     c30:	93 83       	std	Z+3, r25	; 0x03
     c32:	20 e0       	ldi	r18, 0x00	; 0
     c34:	30 e0       	ldi	r19, 0x00	; 0
     c36:	40 e8       	ldi	r20, 0x80	; 128
     c38:	5f eb       	ldi	r21, 0xBF	; 191
     c3a:	0e 94 ff 2c 	call	0x59fe	;  0x59fe
     c3e:	88 23       	and	r24, r24
     c40:	0c f4       	brge	.+2      	;  0xc44
     c42:	90 c0       	rjmp	.+288    	;  0xd64
     c44:	00 d0       	rcall	.+0      	;  0xc46
     c46:	00 d0       	rcall	.+0      	;  0xc48
     c48:	0d b7       	in	r16, 0x3d	; 61
     c4a:	1e b7       	in	r17, 0x3e	; 62
     c4c:	0f 5f       	subi	r16, 0xFF	; 255
     c4e:	1f 4f       	sbci	r17, 0xFF	; 255
     c50:	c7 01       	movw	r24, r14
     c52:	b6 01       	movw	r22, r12
     c54:	0e 94 a4 2b 	call	0x5748	;  0x5748
     c58:	26 e9       	ldi	r18, 0x96	; 150
     c5a:	62 2e       	mov	r6, r18
     c5c:	71 2c       	mov	r7, r1
     c5e:	81 2c       	mov	r8, r1
     c60:	91 2c       	mov	r9, r1
     c62:	f8 01       	movw	r30, r16
     c64:	60 82       	st	Z, r6
     c66:	71 82       	std	Z+1, r7	; 0x01
     c68:	82 82       	std	Z+2, r8	; 0x02
     c6a:	93 82       	std	Z+3, r9	; 0x03
     c6c:	2c eb       	ldi	r18, 0xBC	; 188
     c6e:	32 e0       	ldi	r19, 0x02	; 2
     c70:	40 e0       	ldi	r20, 0x00	; 0
     c72:	50 e0       	ldi	r21, 0x00	; 0
     c74:	bc e0       	ldi	r27, 0x0C	; 12
     c76:	eb 2e       	mov	r14, r27
     c78:	b7 e1       	ldi	r27, 0x17	; 23
     c7a:	fb 2e       	mov	r15, r27
     c7c:	01 2d       	mov	r16, r1
     c7e:	11 2d       	mov	r17, r1
     c80:	a5 e0       	ldi	r26, 0x05	; 5
     c82:	aa 2e       	mov	r10, r26
     c84:	b1 2c       	mov	r11, r1
     c86:	c1 2c       	mov	r12, r1
     c88:	d1 2c       	mov	r13, r1
     c8a:	0e 94 38 27 	call	0x4e70	;  0x4e70
     c8e:	0f 90       	pop	r0
     c90:	0f 90       	pop	r0
     c92:	0f 90       	pop	r0
     c94:	0f 90       	pop	r0
     c96:	97 ff       	sbrs	r25, 7
     c98:	05 c0       	rjmp	.+10     	;  0xca4
     c9a:	60 e0       	ldi	r22, 0x00	; 0
     c9c:	70 e0       	ldi	r23, 0x00	; 0
     c9e:	80 e0       	ldi	r24, 0x00	; 0
     ca0:	90 e0       	ldi	r25, 0x00	; 0
     ca2:	5a c0       	rjmp	.+180    	;  0xd58
     ca4:	00 d0       	rcall	.+0      	;  0xca6
     ca6:	00 d0       	rcall	.+0      	;  0xca8
     ca8:	0d b7       	in	r16, 0x3d	; 61
     caa:	1e b7       	in	r17, 0x3e	; 62
     cac:	0f 5f       	subi	r16, 0xFF	; 255
     cae:	1f 4f       	sbci	r17, 0xFF	; 255
     cb0:	f2 01       	movw	r30, r4
     cb2:	60 81       	ld	r22, Z
     cb4:	71 81       	ldd	r23, Z+1	; 0x01
     cb6:	82 81       	ldd	r24, Z+2	; 0x02
     cb8:	93 81       	ldd	r25, Z+3	; 0x03
     cba:	0e 94 a4 2b 	call	0x5748	;  0x5748
     cbe:	f8 01       	movw	r30, r16
     cc0:	60 82       	st	Z, r6
     cc2:	71 82       	std	Z+1, r7	; 0x01
     cc4:	82 82       	std	Z+2, r8	; 0x02
     cc6:	93 82       	std	Z+3, r9	; 0x03
     cc8:	2c eb       	ldi	r18, 0xBC	; 188
     cca:	32 e0       	ldi	r19, 0x02	; 2
     ccc:	40 e0       	ldi	r20, 0x00	; 0
     cce:	50 e0       	ldi	r21, 0x00	; 0
     cd0:	fc e0       	ldi	r31, 0x0C	; 12
     cd2:	ef 2e       	mov	r14, r31
     cd4:	f7 e1       	ldi	r31, 0x17	; 23
     cd6:	ff 2e       	mov	r15, r31
     cd8:	01 2d       	mov	r16, r1
     cda:	11 2d       	mov	r17, r1
     cdc:	e5 e0       	ldi	r30, 0x05	; 5
     cde:	ae 2e       	mov	r10, r30
     ce0:	b1 2c       	mov	r11, r1
     ce2:	c1 2c       	mov	r12, r1
     ce4:	d1 2c       	mov	r13, r1
     ce6:	0e 94 38 27 	call	0x4e70	;  0x4e70
     cea:	0f 90       	pop	r0
     cec:	0f 90       	pop	r0
     cee:	0f 90       	pop	r0
     cf0:	0f 90       	pop	r0
     cf2:	65 3f       	cpi	r22, 0xF5	; 245
     cf4:	71 05       	cpc	r23, r1
     cf6:	81 05       	cpc	r24, r1
     cf8:	91 05       	cpc	r25, r1
     cfa:	2c f0       	brlt	.+10     	;  0xd06
     cfc:	60 e0       	ldi	r22, 0x00	; 0
     cfe:	70 e0       	ldi	r23, 0x00	; 0
     d00:	84 e7       	ldi	r24, 0x74	; 116
     d02:	93 e4       	ldi	r25, 0x43	; 67
     d04:	29 c0       	rjmp	.+82     	;  0xd58
     d06:	00 d0       	rcall	.+0      	;  0xd08
     d08:	00 d0       	rcall	.+0      	;  0xd0a
     d0a:	0d b7       	in	r16, 0x3d	; 61
     d0c:	1e b7       	in	r17, 0x3e	; 62
     d0e:	0f 5f       	subi	r16, 0xFF	; 255
     d10:	1f 4f       	sbci	r17, 0xFF	; 255
     d12:	f2 01       	movw	r30, r4
     d14:	60 81       	ld	r22, Z
     d16:	71 81       	ldd	r23, Z+1	; 0x01
     d18:	82 81       	ldd	r24, Z+2	; 0x02
     d1a:	93 81       	ldd	r25, Z+3	; 0x03
     d1c:	0e 94 a4 2b 	call	0x5748	;  0x5748
     d20:	f8 01       	movw	r30, r16
     d22:	60 82       	st	Z, r6
     d24:	71 82       	std	Z+1, r7	; 0x01
     d26:	82 82       	std	Z+2, r8	; 0x02
     d28:	93 82       	std	Z+3, r9	; 0x03
     d2a:	2c eb       	ldi	r18, 0xBC	; 188
     d2c:	32 e0       	ldi	r19, 0x02	; 2
     d2e:	40 e0       	ldi	r20, 0x00	; 0
     d30:	50 e0       	ldi	r21, 0x00	; 0
     d32:	bc e0       	ldi	r27, 0x0C	; 12
     d34:	eb 2e       	mov	r14, r27
     d36:	b7 e1       	ldi	r27, 0x17	; 23
     d38:	fb 2e       	mov	r15, r27
     d3a:	01 2d       	mov	r16, r1
     d3c:	11 2d       	mov	r17, r1
     d3e:	a5 e0       	ldi	r26, 0x05	; 5
     d40:	aa 2e       	mov	r10, r26
     d42:	b1 2c       	mov	r11, r1
     d44:	c1 2c       	mov	r12, r1
     d46:	d1 2c       	mov	r13, r1
     d48:	0e 94 38 27 	call	0x4e70	;  0x4e70
     d4c:	0e 94 d7 2b 	call	0x57ae	;  0x57ae
     d50:	0f 90       	pop	r0
     d52:	0f 90       	pop	r0
     d54:	0f 90       	pop	r0
     d56:	0f 90       	pop	r0
     d58:	ce 5d       	subi	r28, 0xDE	; 222
     d5a:	dd 4f       	sbci	r29, 0xFD	; 253
     d5c:	68 83       	st	Y, r22
     d5e:	79 83       	std	Y+1, r23	; 0x01
     d60:	8a 83       	std	Y+2, r24	; 0x02
     d62:	9b 83       	std	Y+3, r25	; 0x03
     d64:	df 91       	pop	r29
     d66:	cf 91       	pop	r28
     d68:	1f 91       	pop	r17
     d6a:	0f 91       	pop	r16
     d6c:	ff 90       	pop	r15
     d6e:	ef 90       	pop	r14
     d70:	df 90       	pop	r13
     d72:	cf 90       	pop	r12
     d74:	bf 90       	pop	r11
     d76:	af 90       	pop	r10
     d78:	9f 90       	pop	r9
     d7a:	8f 90       	pop	r8
     d7c:	7f 90       	pop	r7
     d7e:	6f 90       	pop	r6
     d80:	5f 90       	pop	r5
     d82:	4f 90       	pop	r4
     d84:	08 95       	ret
     d86:	2f 92       	push	r2
     d88:	3f 92       	push	r3
     d8a:	4f 92       	push	r4
     d8c:	5f 92       	push	r5
     d8e:	6f 92       	push	r6
     d90:	7f 92       	push	r7
     d92:	8f 92       	push	r8
     d94:	9f 92       	push	r9
     d96:	af 92       	push	r10
     d98:	bf 92       	push	r11
     d9a:	cf 92       	push	r12
     d9c:	df 92       	push	r13
     d9e:	ef 92       	push	r14
     da0:	ff 92       	push	r15
     da2:	0f 93       	push	r16
     da4:	1f 93       	push	r17
     da6:	df 93       	push	r29
     da8:	cf 93       	push	r28
     daa:	cd b7       	in	r28, 0x3d	; 61
     dac:	de b7       	in	r29, 0x3e	; 62
     dae:	c2 54       	subi	r28, 0x42	; 66
     db0:	d0 40       	sbci	r29, 0x00	; 0
     db2:	0f b6       	in	r0, 0x3f	; 63
     db4:	f8 94       	cli
     db6:	de bf       	out	0x3e, r29	; 62
     db8:	0f be       	out	0x3f, r0	; 63
     dba:	cd bf       	out	0x3d, r28	; 61
     dbc:	1c 01       	movw	r2, r24
     dbe:	9c 01       	movw	r18, r24
     dc0:	26 58       	subi	r18, 0x86	; 134
     dc2:	3e 4f       	sbci	r19, 0xFE	; 254
     dc4:	3a 87       	std	Y+10, r19	; 0x0a
     dc6:	29 87       	std	Y+9, r18	; 0x09
     dc8:	21 96       	adiw	r28, 0x01	; 1
     dca:	3f af       	std	Y+63, r19	; 0x3f
     dcc:	2e af       	std	Y+62, r18	; 0x3e
     dce:	21 97       	sbiw	r28, 0x01	; 1
     dd0:	1e 8a       	std	Y+22, r1	; 0x16
     dd2:	1d 8a       	std	Y+21, r1	; 0x15
     dd4:	8a 51       	subi	r24, 0x1A	; 26
     dd6:	9e 4f       	sbci	r25, 0xFE	; 254
     dd8:	9e a7       	std	Y+46, r25	; 0x2e
     dda:	8d a7       	std	Y+45, r24	; 0x2d
     ddc:	d1 01       	movw	r26, r2
     dde:	a6 5e       	subi	r26, 0xE6	; 230
     de0:	bd 4f       	sbci	r27, 0xFD	; 253
     de2:	b8 ab       	std	Y+48, r27	; 0x30
     de4:	af a7       	std	Y+47, r26	; 0x2f
     de6:	f1 01       	movw	r30, r2
     de8:	e2 5e       	subi	r30, 0xE2	; 226
     dea:	fd 4f       	sbci	r31, 0xFD	; 253
     dec:	fa ab       	std	Y+50, r31	; 0x32
     dee:	e9 ab       	std	Y+49, r30	; 0x31
     df0:	91 01       	movw	r18, r2
     df2:	2e 5f       	subi	r18, 0xFE	; 254
     df4:	3d 4f       	sbci	r19, 0xFD	; 253
     df6:	3c ab       	std	Y+52, r19	; 0x34
     df8:	2b ab       	std	Y+51, r18	; 0x33
     dfa:	c1 01       	movw	r24, r2
     dfc:	88 50       	subi	r24, 0x08	; 8
     dfe:	9e 4f       	sbci	r25, 0xFE	; 254
     e00:	9e ab       	std	Y+54, r25	; 0x36
     e02:	8d ab       	std	Y+53, r24	; 0x35
     e04:	d1 01       	movw	r26, r2
     e06:	a6 50       	subi	r26, 0x06	; 6
     e08:	be 4f       	sbci	r27, 0xFE	; 254
     e0a:	b8 af       	std	Y+56, r27	; 0x38
     e0c:	af ab       	std	Y+55, r26	; 0x37
     e0e:	f1 01       	movw	r30, r2
     e10:	e8 5e       	subi	r30, 0xE8	; 232
     e12:	fd 4f       	sbci	r31, 0xFD	; 253
     e14:	fa af       	std	Y+58, r31	; 0x3a
     e16:	e9 af       	std	Y+57, r30	; 0x39
     e18:	91 01       	movw	r18, r2
     e1a:	2e 5d       	subi	r18, 0xDE	; 222
     e1c:	3d 4f       	sbci	r19, 0xFD	; 253
     e1e:	3c af       	std	Y+60, r19	; 0x3c
     e20:	2b af       	std	Y+59, r18	; 0x3b
     e22:	0d 89       	ldd	r16, Y+21	; 0x15
     e24:	1e 89       	ldd	r17, Y+22	; 0x16
     e26:	00 0f       	add	r16, r16
     e28:	11 1f       	adc	r17, r17
     e2a:	00 0f       	add	r16, r16
     e2c:	11 1f       	adc	r17, r17
     e2e:	8d 89       	ldd	r24, Y+21	; 0x15
     e30:	9e 89       	ldd	r25, Y+22	; 0x16
     e32:	08 0f       	add	r16, r24
     e34:	19 1f       	adc	r17, r25
     e36:	06 58       	subi	r16, 0x86	; 134
     e38:	1e 4f       	sbci	r17, 0xFE	; 254
     e3a:	02 0d       	add	r16, r2
     e3c:	13 1d       	adc	r17, r3
     e3e:	ad a5       	ldd	r26, Y+45	; 0x2d
     e40:	be a5       	ldd	r27, Y+46	; 0x2e
     e42:	0d 90       	ld	r0, X+
     e44:	bc 91       	ld	r27, X
     e46:	a0 2d       	mov	r26, r0
     e48:	bc 8b       	std	Y+20, r27	; 0x14
     e4a:	ab 8b       	std	Y+19, r26	; 0x13
     e4c:	af a5       	ldd	r26, Y+47	; 0x2f
     e4e:	b8 a9       	ldd	r27, Y+48	; 0x30
     e50:	8d 91       	ld	r24, X+
     e52:	9d 91       	ld	r25, X+
     e54:	0d 90       	ld	r0, X+
     e56:	bc 91       	ld	r27, X
     e58:	a0 2d       	mov	r26, r0
     e5a:	8d a3       	std	Y+37, r24	; 0x25
     e5c:	9e a3       	std	Y+38, r25	; 0x26
     e5e:	af a3       	std	Y+39, r26	; 0x27
     e60:	b8 a7       	std	Y+40, r27	; 0x28
     e62:	a9 a9       	ldd	r26, Y+49	; 0x31
     e64:	ba a9       	ldd	r27, Y+50	; 0x32
     e66:	8d 91       	ld	r24, X+
     e68:	9d 91       	ld	r25, X+
     e6a:	0d 90       	ld	r0, X+
     e6c:	bc 91       	ld	r27, X
     e6e:	a0 2d       	mov	r26, r0
     e70:	89 a3       	std	Y+33, r24	; 0x21
     e72:	9a a3       	std	Y+34, r25	; 0x22
     e74:	ab a3       	std	Y+35, r26	; 0x23
     e76:	bc a3       	std	Y+36, r27	; 0x24
     e78:	eb a9       	ldd	r30, Y+51	; 0x33
     e7a:	fc a9       	ldd	r31, Y+52	; 0x34
     e7c:	01 90       	ld	r0, Z+
     e7e:	f0 81       	ld	r31, Z
     e80:	e0 2d       	mov	r30, r0
     e82:	f8 a3       	std	Y+32, r31	; 0x20
     e84:	ef 8f       	std	Y+31, r30	; 0x1f
     e86:	c8 01       	movw	r24, r16
     e88:	cd dd       	rcall	.-1126   	;  0xa24
     e8a:	6b 8f       	std	Y+27, r22	; 0x1b
     e8c:	7c 8f       	std	Y+28, r23	; 0x1c
     e8e:	8d 8f       	std	Y+29, r24	; 0x1d
     e90:	9e 8f       	std	Y+30, r25	; 0x1e
     e92:	21 96       	adiw	r28, 0x01	; 1
     e94:	ae ad       	ldd	r26, Y+62	; 0x3e
     e96:	bf ad       	ldd	r27, Y+63	; 0x3f
     e98:	21 97       	sbiw	r28, 0x01	; 1
     e9a:	13 96       	adiw	r26, 0x03	; 3
     e9c:	6c 91       	ld	r22, X
     e9e:	77 27       	eor	r23, r23
     ea0:	67 fd       	sbrc	r22, 7
     ea2:	70 95       	com	r23
     ea4:	87 2f       	mov	r24, r23
     ea6:	97 2f       	mov	r25, r23
     ea8:	0e 94 d7 2b 	call	0x57ae	;  0x57ae
     eac:	6b 01       	movw	r12, r22
     eae:	7c 01       	movw	r14, r24
     eb0:	ed a9       	ldd	r30, Y+53	; 0x35
     eb2:	fe a9       	ldd	r31, Y+54	; 0x36
     eb4:	60 81       	ld	r22, Z
     eb6:	71 81       	ldd	r23, Z+1	; 0x01
     eb8:	88 27       	eor	r24, r24
     eba:	77 fd       	sbrc	r23, 7
     ebc:	80 95       	com	r24
     ebe:	98 2f       	mov	r25, r24
     ec0:	0e 94 d7 2b 	call	0x57ae	;  0x57ae
     ec4:	20 e0       	ldi	r18, 0x00	; 0
     ec6:	30 e0       	ldi	r19, 0x00	; 0
     ec8:	40 e2       	ldi	r20, 0x20	; 32
     eca:	51 e4       	ldi	r21, 0x41	; 65
     ecc:	0e 94 3c 2b 	call	0x5678	;  0x5678
     ed0:	9b 01       	movw	r18, r22
     ed2:	ac 01       	movw	r20, r24
     ed4:	c7 01       	movw	r24, r14
     ed6:	b6 01       	movw	r22, r12
     ed8:	0e 94 6f 2a 	call	0x54de	;  0x54de
     edc:	6b 01       	movw	r12, r22
     ede:	7c 01       	movw	r14, r24
     ee0:	c8 01       	movw	r24, r16
     ee2:	a0 dd       	rcall	.-1216   	;  0xa24
     ee4:	20 e0       	ldi	r18, 0x00	; 0
     ee6:	30 e0       	ldi	r19, 0x00	; 0
     ee8:	40 e4       	ldi	r20, 0x40	; 64
     eea:	50 e4       	ldi	r21, 0x40	; 64
     eec:	0e 94 0a 2d 	call	0x5a14	;  0x5a14
     ef0:	9b 01       	movw	r18, r22
     ef2:	ac 01       	movw	r20, r24
     ef4:	c7 01       	movw	r24, r14
     ef6:	b6 01       	movw	r22, r12
     ef8:	0e 94 6f 2a 	call	0x54de	;  0x54de
     efc:	4b 01       	movw	r8, r22
     efe:	5c 01       	movw	r10, r24
     f00:	21 96       	adiw	r28, 0x01	; 1
     f02:	ae ad       	ldd	r26, Y+62	; 0x3e
     f04:	bf ad       	ldd	r27, Y+63	; 0x3f
     f06:	21 97       	sbiw	r28, 0x01	; 1
     f08:	14 96       	adiw	r26, 0x04	; 4
     f0a:	6c 91       	ld	r22, X
     f0c:	77 27       	eor	r23, r23
     f0e:	67 fd       	sbrc	r22, 7
     f10:	70 95       	com	r23
     f12:	87 2f       	mov	r24, r23
     f14:	97 2f       	mov	r25, r23
     f16:	0e 94 d7 2b 	call	0x57ae	;  0x57ae
     f1a:	6b 01       	movw	r12, r22
     f1c:	7c 01       	movw	r14, r24
     f1e:	ef a9       	ldd	r30, Y+55	; 0x37
     f20:	f8 ad       	ldd	r31, Y+56	; 0x38
     f22:	60 81       	ld	r22, Z
     f24:	71 81       	ldd	r23, Z+1	; 0x01
     f26:	88 27       	eor	r24, r24
     f28:	77 fd       	sbrc	r23, 7
     f2a:	80 95       	com	r24
     f2c:	98 2f       	mov	r25, r24
     f2e:	0e 94 d7 2b 	call	0x57ae	;  0x57ae
     f32:	20 e0       	ldi	r18, 0x00	; 0
     f34:	30 e0       	ldi	r19, 0x00	; 0
     f36:	40 e2       	ldi	r20, 0x20	; 32
     f38:	51 e4       	ldi	r21, 0x41	; 65
     f3a:	0e 94 3c 2b 	call	0x5678	;  0x5678
     f3e:	9b 01       	movw	r18, r22
     f40:	ac 01       	movw	r20, r24
     f42:	c7 01       	movw	r24, r14
     f44:	b6 01       	movw	r22, r12
     f46:	0e 94 6f 2a 	call	0x54de	;  0x54de
     f4a:	6b 01       	movw	r12, r22
     f4c:	7c 01       	movw	r14, r24
     f4e:	c8 01       	movw	r24, r16
     f50:	69 dd       	rcall	.-1326   	;  0xa24
     f52:	20 e0       	ldi	r18, 0x00	; 0
     f54:	30 e0       	ldi	r19, 0x00	; 0
     f56:	40 e4       	ldi	r20, 0x40	; 64
     f58:	50 e4       	ldi	r21, 0x40	; 64
     f5a:	0e 94 0a 2d 	call	0x5a14	;  0x5a14
     f5e:	9b 01       	movw	r18, r22
     f60:	ac 01       	movw	r20, r24
     f62:	c7 01       	movw	r24, r14
     f64:	b6 01       	movw	r22, r12
     f66:	0e 94 6f 2a 	call	0x54de	;  0x54de
     f6a:	7b 01       	movw	r14, r22
     f6c:	8c 01       	movw	r16, r24
     f6e:	21 96       	adiw	r28, 0x01	; 1
     f70:	ae ad       	ldd	r26, Y+62	; 0x3e
     f72:	bf ad       	ldd	r27, Y+63	; 0x3f
     f74:	21 97       	sbiw	r28, 0x01	; 1
     f76:	6c 91       	ld	r22, X
     f78:	70 e0       	ldi	r23, 0x00	; 0
     f7a:	80 e0       	ldi	r24, 0x00	; 0
     f7c:	90 e0       	ldi	r25, 0x00	; 0
     f7e:	0e 94 d5 2b 	call	0x57aa	;  0x57aa
     f82:	a5 01       	movw	r20, r10
     f84:	94 01       	movw	r18, r8
     f86:	0e 94 6f 2a 	call	0x54de	;  0x54de
     f8a:	2b 01       	movw	r4, r22
     f8c:	3c 01       	movw	r6, r24
     f8e:	21 96       	adiw	r28, 0x01	; 1
     f90:	ee ad       	ldd	r30, Y+62	; 0x3e
     f92:	ff ad       	ldd	r31, Y+63	; 0x3f
     f94:	21 97       	sbiw	r28, 0x01	; 1
     f96:	61 81       	ldd	r22, Z+1	; 0x01
     f98:	70 e0       	ldi	r23, 0x00	; 0
     f9a:	80 e0       	ldi	r24, 0x00	; 0
     f9c:	90 e0       	ldi	r25, 0x00	; 0
     f9e:	0e 94 d5 2b 	call	0x57aa	;  0x57aa
     fa2:	a8 01       	movw	r20, r16
     fa4:	97 01       	movw	r18, r14
     fa6:	0e 94 6f 2a 	call	0x54de	;  0x54de
     faa:	6f 8b       	std	Y+23, r22	; 0x17
     fac:	78 8f       	std	Y+24, r23	; 0x18
     fae:	89 8f       	std	Y+25, r24	; 0x19
     fb0:	9a 8f       	std	Y+26, r25	; 0x1a
     fb2:	c5 01       	movw	r24, r10
     fb4:	b4 01       	movw	r22, r8
     fb6:	0e 94 a4 2b 	call	0x5748	;  0x5748
     fba:	21 96       	adiw	r28, 0x01	; 1
     fbc:	ae ad       	ldd	r26, Y+62	; 0x3e
     fbe:	bf ad       	ldd	r27, Y+63	; 0x3f
     fc0:	21 97       	sbiw	r28, 0x01	; 1
     fc2:	13 96       	adiw	r26, 0x03	; 3
     fc4:	6c 93       	st	X, r22
     fc6:	c8 01       	movw	r24, r16
     fc8:	b7 01       	movw	r22, r14
     fca:	0e 94 a4 2b 	call	0x5748	;  0x5748
     fce:	21 96       	adiw	r28, 0x01	; 1
     fd0:	ee ad       	ldd	r30, Y+62	; 0x3e
     fd2:	ff ad       	ldd	r31, Y+63	; 0x3f
     fd4:	21 97       	sbiw	r28, 0x01	; 1
     fd6:	64 83       	std	Z+4, r22	; 0x04
     fd8:	c3 01       	movw	r24, r6
     fda:	b2 01       	movw	r22, r4
     fdc:	20 e0       	ldi	r18, 0x00	; 0
     fde:	30 e0       	ldi	r19, 0x00	; 0
     fe0:	40 e0       	ldi	r20, 0x00	; 0
     fe2:	50 e0       	ldi	r21, 0x00	; 0
     fe4:	0e 94 35 2b 	call	0x566a	;  0x566a
     fe8:	88 23       	and	r24, r24
     fea:	14 f4       	brge	.+4      	;  0xff0
     fec:	60 e0       	ldi	r22, 0x00	; 0
     fee:	10 c0       	rjmp	.+32     	;  0x1010
     ff0:	c3 01       	movw	r24, r6
     ff2:	b2 01       	movw	r22, r4
     ff4:	20 e0       	ldi	r18, 0x00	; 0
     ff6:	30 e0       	ldi	r19, 0x00	; 0
     ff8:	4f e7       	ldi	r20, 0x7F	; 127
     ffa:	53 e4       	ldi	r21, 0x43	; 67
     ffc:	0e 94 ff 2c 	call	0x59fe	;  0x59fe
    1000:	18 16       	cp	r1, r24
    1002:	14 f4       	brge	.+4      	;  0x1008
    1004:	6f ef       	ldi	r22, 0xFF	; 255
    1006:	04 c0       	rjmp	.+8      	;  0x1010
    1008:	c3 01       	movw	r24, r6
    100a:	b2 01       	movw	r22, r4
    100c:	0e 94 a9 2b 	call	0x5752	;  0x5752
    1010:	21 96       	adiw	r28, 0x01	; 1
    1012:	ae ad       	ldd	r26, Y+62	; 0x3e
    1014:	bf ad       	ldd	r27, Y+63	; 0x3f
    1016:	21 97       	sbiw	r28, 0x01	; 1
    1018:	6c 93       	st	X, r22
    101a:	6f 89       	ldd	r22, Y+23	; 0x17
    101c:	78 8d       	ldd	r23, Y+24	; 0x18
    101e:	89 8d       	ldd	r24, Y+25	; 0x19
    1020:	9a 8d       	ldd	r25, Y+26	; 0x1a
    1022:	20 e0       	ldi	r18, 0x00	; 0
    1024:	30 e0       	ldi	r19, 0x00	; 0
    1026:	40 e0       	ldi	r20, 0x00	; 0
    1028:	50 e0       	ldi	r21, 0x00	; 0
    102a:	0e 94 35 2b 	call	0x566a	;  0x566a
    102e:	88 23       	and	r24, r24
    1030:	14 f4       	brge	.+4      	;  0x1036
    1032:	10 e0       	ldi	r17, 0x00	; 0
    1034:	15 c0       	rjmp	.+42     	;  0x1060
    1036:	6f 89       	ldd	r22, Y+23	; 0x17
    1038:	78 8d       	ldd	r23, Y+24	; 0x18
    103a:	89 8d       	ldd	r24, Y+25	; 0x19
    103c:	9a 8d       	ldd	r25, Y+26	; 0x1a
    103e:	20 e0       	ldi	r18, 0x00	; 0
    1040:	30 e0       	ldi	r19, 0x00	; 0
    1042:	4f e7       	ldi	r20, 0x7F	; 127
    1044:	53 e4       	ldi	r21, 0x43	; 67
    1046:	0e 94 ff 2c 	call	0x59fe	;  0x59fe
    104a:	18 16       	cp	r1, r24
    104c:	14 f4       	brge	.+4      	;  0x1052
    104e:	1f ef       	ldi	r17, 0xFF	; 255
    1050:	07 c0       	rjmp	.+14     	;  0x1060
    1052:	6f 89       	ldd	r22, Y+23	; 0x17
    1054:	78 8d       	ldd	r23, Y+24	; 0x18
    1056:	89 8d       	ldd	r24, Y+25	; 0x19
    1058:	9a 8d       	ldd	r25, Y+26	; 0x1a
    105a:	0e 94 a9 2b 	call	0x5752	;  0x5752
    105e:	16 2f       	mov	r17, r22
    1060:	21 96       	adiw	r28, 0x01	; 1
    1062:	ee ad       	ldd	r30, Y+62	; 0x3e
    1064:	ff ad       	ldd	r31, Y+63	; 0x3f
    1066:	21 97       	sbiw	r28, 0x01	; 1
    1068:	11 83       	std	Z+1, r17	; 0x01
    106a:	60 81       	ld	r22, Z
    106c:	70 e0       	ldi	r23, 0x00	; 0
    106e:	88 27       	eor	r24, r24
    1070:	77 fd       	sbrc	r23, 7
    1072:	80 95       	com	r24
    1074:	98 2f       	mov	r25, r24
    1076:	0e 94 d7 2b 	call	0x57ae	;  0x57ae
    107a:	5b 01       	movw	r10, r22
    107c:	6c 01       	movw	r12, r24
    107e:	ab 89       	ldd	r26, Y+19	; 0x13
    1080:	bc 89       	ldd	r27, Y+20	; 0x14
    1082:	2d 91       	ld	r18, X+
    1084:	3d 91       	ld	r19, X+
    1086:	4d 91       	ld	r20, X+
    1088:	5c 91       	ld	r21, X
    108a:	0e 94 35 2b 	call	0x566a	;  0x566a
    108e:	18 16       	cp	r1, r24
    1090:	74 f5       	brge	.+92     	;  0x10ee
    1092:	61 2f       	mov	r22, r17
    1094:	70 e0       	ldi	r23, 0x00	; 0
    1096:	88 27       	eor	r24, r24
    1098:	77 fd       	sbrc	r23, 7
    109a:	80 95       	com	r24
    109c:	98 2f       	mov	r25, r24
    109e:	0e 94 d7 2b 	call	0x57ae	;  0x57ae
    10a2:	7b 01       	movw	r14, r22
    10a4:	8c 01       	movw	r16, r24
    10a6:	eb 89       	ldd	r30, Y+19	; 0x13
    10a8:	fc 89       	ldd	r31, Y+20	; 0x14
    10aa:	24 81       	ldd	r18, Z+4	; 0x04
    10ac:	35 81       	ldd	r19, Z+5	; 0x05
    10ae:	46 81       	ldd	r20, Z+6	; 0x06
    10b0:	57 81       	ldd	r21, Z+7	; 0x07
    10b2:	0e 94 35 2b 	call	0x566a	;  0x566a
    10b6:	18 16       	cp	r1, r24
    10b8:	d4 f4       	brge	.+52     	;  0x10ee
    10ba:	c6 01       	movw	r24, r12
    10bc:	b5 01       	movw	r22, r10
    10be:	ab 89       	ldd	r26, Y+19	; 0x13
    10c0:	bc 89       	ldd	r27, Y+20	; 0x14
    10c2:	18 96       	adiw	r26, 0x08	; 8
    10c4:	2d 91       	ld	r18, X+
    10c6:	3d 91       	ld	r19, X+
    10c8:	4d 91       	ld	r20, X+
    10ca:	5c 91       	ld	r21, X
    10cc:	1b 97       	sbiw	r26, 0x0b	; 11
    10ce:	0e 94 ff 2c 	call	0x59fe	;  0x59fe
    10d2:	87 ff       	sbrs	r24, 7
    10d4:	0c c0       	rjmp	.+24     	;  0x10ee
    10d6:	c8 01       	movw	r24, r16
    10d8:	b7 01       	movw	r22, r14
    10da:	eb 89       	ldd	r30, Y+19	; 0x13
    10dc:	fc 89       	ldd	r31, Y+20	; 0x14
    10de:	24 85       	ldd	r18, Z+12	; 0x0c
    10e0:	35 85       	ldd	r19, Z+13	; 0x0d
    10e2:	46 85       	ldd	r20, Z+14	; 0x0e
    10e4:	57 85       	ldd	r21, Z+15	; 0x0f
    10e6:	0e 94 ff 2c 	call	0x59fe	;  0x59fe
    10ea:	88 23       	and	r24, r24
    10ec:	4c f0       	brlt	.+18     	;  0x1100
    10ee:	21 96       	adiw	r28, 0x01	; 1
    10f0:	ae ad       	ldd	r26, Y+62	; 0x3e
    10f2:	bf ad       	ldd	r27, Y+63	; 0x3f
    10f4:	21 97       	sbiw	r28, 0x01	; 1
    10f6:	13 96       	adiw	r26, 0x03	; 3
    10f8:	1c 92       	st	X, r1
    10fa:	13 97       	sbiw	r26, 0x03	; 3
    10fc:	14 96       	adiw	r26, 0x04	; 4
    10fe:	1c 92       	st	X, r1
    1100:	e9 ad       	ldd	r30, Y+57	; 0x39
    1102:	fa ad       	ldd	r31, Y+58	; 0x3a
    1104:	80 81       	ld	r24, Z
    1106:	91 81       	ldd	r25, Z+1	; 0x01
    1108:	88 3c       	cpi	r24, 0xC8	; 200
    110a:	91 05       	cpc	r25, r1
    110c:	2c f0       	brlt	.+10     	;  0x1118
    110e:	80 e0       	ldi	r24, 0x00	; 0
    1110:	90 e0       	ldi	r25, 0x00	; 0
    1112:	a0 e8       	ldi	r26, 0x80	; 128
    1114:	bf e3       	ldi	r27, 0x3F	; 63
    1116:	9f c0       	rjmp	.+318    	;  0x1256
    1118:	21 96       	adiw	r28, 0x01	; 1
    111a:	ae ad       	ldd	r26, Y+62	; 0x3e
    111c:	bf ad       	ldd	r27, Y+63	; 0x3f
    111e:	21 97       	sbiw	r28, 0x01	; 1
    1120:	6c 91       	ld	r22, X
    1122:	70 e0       	ldi	r23, 0x00	; 0
    1124:	80 e0       	ldi	r24, 0x00	; 0
    1126:	90 e0       	ldi	r25, 0x00	; 0
    1128:	0e 94 d5 2b 	call	0x57aa	;  0x57aa
    112c:	6b 01       	movw	r12, r22
    112e:	7c 01       	movw	r14, r24
    1130:	21 96       	adiw	r28, 0x01	; 1
    1132:	ee ad       	ldd	r30, Y+62	; 0x3e
    1134:	ff ad       	ldd	r31, Y+63	; 0x3f
    1136:	21 97       	sbiw	r28, 0x01	; 1
    1138:	61 81       	ldd	r22, Z+1	; 0x01
    113a:	70 e0       	ldi	r23, 0x00	; 0
    113c:	80 e0       	ldi	r24, 0x00	; 0
    113e:	90 e0       	ldi	r25, 0x00	; 0
    1140:	0e 94 d5 2b 	call	0x57aa	;  0x57aa
    1144:	8b 01       	movw	r16, r22
    1146:	9c 01       	movw	r18, r24
    1148:	8b 89       	ldd	r24, Y+19	; 0x13
    114a:	9c 89       	ldd	r25, Y+20	; 0x14
    114c:	b7 01       	movw	r22, r14
    114e:	a6 01       	movw	r20, r12
    1150:	d3 da       	rcall	.-2650   	;  0x6f8
    1152:	20 e0       	ldi	r18, 0x00	; 0
    1154:	30 e0       	ldi	r19, 0x00	; 0
    1156:	40 e2       	ldi	r20, 0x20	; 32
    1158:	51 e4       	ldi	r21, 0x41	; 65
    115a:	0e 94 35 2b 	call	0x566a	;  0x566a
    115e:	88 23       	and	r24, r24
    1160:	2c f4       	brge	.+10     	;  0x116c
    1162:	60 e0       	ldi	r22, 0x00	; 0
    1164:	70 e0       	ldi	r23, 0x00	; 0
    1166:	80 e2       	ldi	r24, 0x20	; 32
    1168:	91 e4       	ldi	r25, 0x41	; 65
    116a:	47 c0       	rjmp	.+142    	;  0x11fa
    116c:	21 96       	adiw	r28, 0x01	; 1
    116e:	ae ad       	ldd	r26, Y+62	; 0x3e
    1170:	bf ad       	ldd	r27, Y+63	; 0x3f
    1172:	21 97       	sbiw	r28, 0x01	; 1
    1174:	6c 91       	ld	r22, X
    1176:	70 e0       	ldi	r23, 0x00	; 0
    1178:	80 e0       	ldi	r24, 0x00	; 0
    117a:	90 e0       	ldi	r25, 0x00	; 0
    117c:	0e 94 d5 2b 	call	0x57aa	;  0x57aa
    1180:	6b 01       	movw	r12, r22
    1182:	7c 01       	movw	r14, r24
    1184:	21 96       	adiw	r28, 0x01	; 1
    1186:	ee ad       	ldd	r30, Y+62	; 0x3e
    1188:	ff ad       	ldd	r31, Y+63	; 0x3f
    118a:	21 97       	sbiw	r28, 0x01	; 1
    118c:	61 81       	ldd	r22, Z+1	; 0x01
    118e:	70 e0       	ldi	r23, 0x00	; 0
    1190:	80 e0       	ldi	r24, 0x00	; 0
    1192:	90 e0       	ldi	r25, 0x00	; 0
    1194:	0e 94 d5 2b 	call	0x57aa	;  0x57aa
    1198:	8b 01       	movw	r16, r22
    119a:	9c 01       	movw	r18, r24
    119c:	8b 89       	ldd	r24, Y+19	; 0x13
    119e:	9c 89       	ldd	r25, Y+20	; 0x14
    11a0:	b7 01       	movw	r22, r14
    11a2:	a6 01       	movw	r20, r12
    11a4:	a9 da       	rcall	.-2734   	;  0x6f8
    11a6:	20 e0       	ldi	r18, 0x00	; 0
    11a8:	30 e0       	ldi	r19, 0x00	; 0
    11aa:	44 e7       	ldi	r20, 0x74	; 116
    11ac:	53 e4       	ldi	r21, 0x43	; 67
    11ae:	0e 94 ff 2c 	call	0x59fe	;  0x59fe
    11b2:	18 16       	cp	r1, r24
    11b4:	2c f4       	brge	.+10     	;  0x11c0
    11b6:	60 e0       	ldi	r22, 0x00	; 0
    11b8:	70 e0       	ldi	r23, 0x00	; 0
    11ba:	84 e7       	ldi	r24, 0x74	; 116
    11bc:	93 e4       	ldi	r25, 0x43	; 67
    11be:	1d c0       	rjmp	.+58     	;  0x11fa
    11c0:	21 96       	adiw	r28, 0x01	; 1
    11c2:	ae ad       	ldd	r26, Y+62	; 0x3e
    11c4:	bf ad       	ldd	r27, Y+63	; 0x3f
    11c6:	21 97       	sbiw	r28, 0x01	; 1
    11c8:	6c 91       	ld	r22, X
    11ca:	70 e0       	ldi	r23, 0x00	; 0
    11cc:	80 e0       	ldi	r24, 0x00	; 0
    11ce:	90 e0       	ldi	r25, 0x00	; 0
    11d0:	0e 94 d5 2b 	call	0x57aa	;  0x57aa
    11d4:	6b 01       	movw	r12, r22
    11d6:	7c 01       	movw	r14, r24
    11d8:	21 96       	adiw	r28, 0x01	; 1
    11da:	ee ad       	ldd	r30, Y+62	; 0x3e
    11dc:	ff ad       	ldd	r31, Y+63	; 0x3f
    11de:	21 97       	sbiw	r28, 0x01	; 1
    11e0:	61 81       	ldd	r22, Z+1	; 0x01
    11e2:	70 e0       	ldi	r23, 0x00	; 0
    11e4:	80 e0       	ldi	r24, 0x00	; 0
    11e6:	90 e0       	ldi	r25, 0x00	; 0
    11e8:	0e 94 d5 2b 	call	0x57aa	;  0x57aa
    11ec:	8b 01       	movw	r16, r22
    11ee:	9c 01       	movw	r18, r24
    11f0:	8b 89       	ldd	r24, Y+19	; 0x13
    11f2:	9c 89       	ldd	r25, Y+20	; 0x14
    11f4:	b7 01       	movw	r22, r14
    11f6:	a6 01       	movw	r20, r12
    11f8:	7f da       	rcall	.-2818   	;  0x6f8
    11fa:	0e 94 a4 2b 	call	0x5748	;  0x5748
    11fe:	2b 01       	movw	r4, r22
    1200:	3c 01       	movw	r6, r24
    1202:	00 d0       	rcall	.+0      	;  0x1204
    1204:	00 d0       	rcall	.+0      	;  0x1206
    1206:	ad b7       	in	r26, 0x3d	; 61
    1208:	be b7       	in	r27, 0x3e	; 62
    120a:	11 96       	adiw	r26, 0x01	; 1
    120c:	1d 92       	st	X+, r1
    120e:	1d 92       	st	X+, r1
    1210:	1d 92       	st	X+, r1
    1212:	1c 92       	st	X, r1
    1214:	14 97       	sbiw	r26, 0x04	; 4
    1216:	20 e0       	ldi	r18, 0x00	; 0
    1218:	30 e0       	ldi	r19, 0x00	; 0
    121a:	40 e0       	ldi	r20, 0x00	; 0
    121c:	50 e0       	ldi	r21, 0x00	; 0
    121e:	a4 ef       	ldi	r26, 0xF4	; 244
    1220:	ea 2e       	mov	r14, r26
    1222:	f1 2c       	mov	r15, r1
    1224:	01 2d       	mov	r16, r1
    1226:	11 2d       	mov	r17, r1
    1228:	aa 24       	eor	r10, r10
    122a:	bb 24       	eor	r11, r11
    122c:	65 01       	movw	r12, r10
    122e:	0e 94 38 27 	call	0x4e70	;  0x4e70
    1232:	0e 94 d7 2b 	call	0x57ae	;  0x57ae
    1236:	0f 90       	pop	r0
    1238:	0f 90       	pop	r0
    123a:	0f 90       	pop	r0
    123c:	0f 90       	pop	r0
    123e:	2d ec       	ldi	r18, 0xCD	; 205
    1240:	3c ec       	ldi	r19, 0xCC	; 204
    1242:	4c ec       	ldi	r20, 0xCC	; 204
    1244:	5d e3       	ldi	r21, 0x3D	; 61
    1246:	0e 94 35 2b 	call	0x566a	;  0x566a
    124a:	88 23       	and	r24, r24
    124c:	4c f4       	brge	.+18     	;  0x1260
    124e:	8d ec       	ldi	r24, 0xCD	; 205
    1250:	9c ec       	ldi	r25, 0xCC	; 204
    1252:	ac ec       	ldi	r26, 0xCC	; 204
    1254:	bd e3       	ldi	r27, 0x3D	; 61
    1256:	8d 83       	std	Y+5, r24	; 0x05
    1258:	9e 83       	std	Y+6, r25	; 0x06
    125a:	af 83       	std	Y+7, r26	; 0x07
    125c:	b8 87       	std	Y+8, r27	; 0x08
    125e:	51 c0       	rjmp	.+162    	;  0x1302
    1260:	00 d0       	rcall	.+0      	;  0x1262
    1262:	00 d0       	rcall	.+0      	;  0x1264
    1264:	ad b7       	in	r26, 0x3d	; 61
    1266:	be b7       	in	r27, 0x3e	; 62
    1268:	11 96       	adiw	r26, 0x01	; 1
    126a:	1d 92       	st	X+, r1
    126c:	1d 92       	st	X+, r1
    126e:	1d 92       	st	X+, r1
    1270:	1c 92       	st	X, r1
    1272:	14 97       	sbiw	r26, 0x04	; 4
    1274:	c3 01       	movw	r24, r6
    1276:	b2 01       	movw	r22, r4
    1278:	20 e0       	ldi	r18, 0x00	; 0
    127a:	30 e0       	ldi	r19, 0x00	; 0
    127c:	40 e0       	ldi	r20, 0x00	; 0
    127e:	50 e0       	ldi	r21, 0x00	; 0
    1280:	f4 ef       	ldi	r31, 0xF4	; 244
    1282:	ef 2e       	mov	r14, r31
    1284:	f1 2c       	mov	r15, r1
    1286:	01 2d       	mov	r16, r1
    1288:	11 2d       	mov	r17, r1
    128a:	aa 24       	eor	r10, r10
    128c:	bb 24       	eor	r11, r11
    128e:	65 01       	movw	r12, r10
    1290:	0e 94 38 27 	call	0x4e70	;  0x4e70
    1294:	0e 94 d7 2b 	call	0x57ae	;  0x57ae
    1298:	0f 90       	pop	r0
    129a:	0f 90       	pop	r0
    129c:	0f 90       	pop	r0
    129e:	0f 90       	pop	r0
    12a0:	26 e6       	ldi	r18, 0x66	; 102
    12a2:	36 e6       	ldi	r19, 0x66	; 102
    12a4:	46 e6       	ldi	r20, 0x66	; 102
    12a6:	5f e3       	ldi	r21, 0x3F	; 63
    12a8:	0e 94 ff 2c 	call	0x59fe	;  0x59fe
    12ac:	18 16       	cp	r1, r24
    12ae:	2c f4       	brge	.+10     	;  0x12ba
    12b0:	86 e6       	ldi	r24, 0x66	; 102
    12b2:	96 e6       	ldi	r25, 0x66	; 102
    12b4:	a6 e6       	ldi	r26, 0x66	; 102
    12b6:	bf e3       	ldi	r27, 0x3F	; 63
    12b8:	ce cf       	rjmp	.-100    	;  0x1256
    12ba:	00 d0       	rcall	.+0      	;  0x12bc
    12bc:	00 d0       	rcall	.+0      	;  0x12be
    12be:	ad b7       	in	r26, 0x3d	; 61
    12c0:	be b7       	in	r27, 0x3e	; 62
    12c2:	11 96       	adiw	r26, 0x01	; 1
    12c4:	1d 92       	st	X+, r1
    12c6:	1d 92       	st	X+, r1
    12c8:	1d 92       	st	X+, r1
    12ca:	1c 92       	st	X, r1
    12cc:	14 97       	sbiw	r26, 0x04	; 4
    12ce:	c3 01       	movw	r24, r6
    12d0:	b2 01       	movw	r22, r4
    12d2:	20 e0       	ldi	r18, 0x00	; 0
    12d4:	30 e0       	ldi	r19, 0x00	; 0
    12d6:	40 e0       	ldi	r20, 0x00	; 0
    12d8:	50 e0       	ldi	r21, 0x00	; 0
    12da:	e4 ef       	ldi	r30, 0xF4	; 244
    12dc:	ee 2e       	mov	r14, r30
    12de:	f1 2c       	mov	r15, r1
    12e0:	01 2d       	mov	r16, r1
    12e2:	11 2d       	mov	r17, r1
    12e4:	aa 24       	eor	r10, r10
    12e6:	bb 24       	eor	r11, r11
    12e8:	65 01       	movw	r12, r10
    12ea:	0e 94 38 27 	call	0x4e70	;  0x4e70
    12ee:	0e 94 d7 2b 	call	0x57ae	;  0x57ae
    12f2:	6d 83       	std	Y+5, r22	; 0x05
    12f4:	7e 83       	std	Y+6, r23	; 0x06
    12f6:	8f 83       	std	Y+7, r24	; 0x07
    12f8:	98 87       	std	Y+8, r25	; 0x08
    12fa:	0f 90       	pop	r0
    12fc:	0f 90       	pop	r0
    12fe:	0f 90       	pop	r0
    1300:	0f 90       	pop	r0
    1302:	eb ad       	ldd	r30, Y+59	; 0x3b
    1304:	fc ad       	ldd	r31, Y+60	; 0x3c
    1306:	60 81       	ld	r22, Z
    1308:	71 81       	ldd	r23, Z+1	; 0x01
    130a:	82 81       	ldd	r24, Z+2	; 0x02
    130c:	93 81       	ldd	r25, Z+3	; 0x03
    130e:	20 e0       	ldi	r18, 0x00	; 0
    1310:	30 e0       	ldi	r19, 0x00	; 0
    1312:	40 e8       	ldi	r20, 0x80	; 128
    1314:	5f eb       	ldi	r21, 0xBF	; 191
    1316:	0e 94 ff 2c 	call	0x59fe	;  0x59fe
    131a:	18 16       	cp	r1, r24
    131c:	5c f0       	brlt	.+22     	;  0x1334
    131e:	0f 2e       	mov	r0, r31
    1320:	f0 e0       	ldi	r31, 0x00	; 0
    1322:	ef 2e       	mov	r14, r31
    1324:	f0 e0       	ldi	r31, 0x00	; 0
    1326:	ff 2e       	mov	r15, r31
    1328:	f0 e0       	ldi	r31, 0x00	; 0
    132a:	0f 2f       	mov	r16, r31
    132c:	ff e3       	ldi	r31, 0x3F	; 63
    132e:	1f 2f       	mov	r17, r31
    1330:	f0 2d       	mov	r31, r0
    1332:	62 c1       	rjmp	.+708    	;  0x15f8
    1334:	21 96       	adiw	r28, 0x01	; 1
    1336:	ae ad       	ldd	r26, Y+62	; 0x3e
    1338:	bf ad       	ldd	r27, Y+63	; 0x3f
    133a:	21 97       	sbiw	r28, 0x01	; 1
    133c:	6c 91       	ld	r22, X
    133e:	70 e0       	ldi	r23, 0x00	; 0
    1340:	80 e0       	ldi	r24, 0x00	; 0
    1342:	90 e0       	ldi	r25, 0x00	; 0
    1344:	0e 94 d5 2b 	call	0x57aa	;  0x57aa
    1348:	6f 87       	std	Y+15, r22	; 0x0f
    134a:	78 8b       	std	Y+16, r23	; 0x10
    134c:	89 8b       	std	Y+17, r24	; 0x11
    134e:	9a 8b       	std	Y+18, r25	; 0x12
    1350:	21 96       	adiw	r28, 0x01	; 1
    1352:	ee ad       	ldd	r30, Y+62	; 0x3e
    1354:	ff ad       	ldd	r31, Y+63	; 0x3f
    1356:	21 97       	sbiw	r28, 0x01	; 1
    1358:	61 81       	ldd	r22, Z+1	; 0x01
    135a:	70 e0       	ldi	r23, 0x00	; 0
    135c:	80 e0       	ldi	r24, 0x00	; 0
    135e:	90 e0       	ldi	r25, 0x00	; 0
    1360:	0e 94 d5 2b 	call	0x57aa	;  0x57aa
    1364:	6b 87       	std	Y+11, r22	; 0x0b
    1366:	7c 87       	std	Y+12, r23	; 0x0c
    1368:	8d 87       	std	Y+13, r24	; 0x0d
    136a:	9e 87       	std	Y+14, r25	; 0x0e
    136c:	6d a1       	ldd	r22, Y+37	; 0x25
    136e:	7e a1       	ldd	r23, Y+38	; 0x26
    1370:	8f a1       	ldd	r24, Y+39	; 0x27
    1372:	98 a5       	ldd	r25, Y+40	; 0x28
    1374:	29 a1       	ldd	r18, Y+33	; 0x21
    1376:	3a a1       	ldd	r19, Y+34	; 0x22
    1378:	4b a1       	ldd	r20, Y+35	; 0x23
    137a:	5c a1       	ldd	r21, Y+36	; 0x24
    137c:	0e 94 6e 2a 	call	0x54dc	;  0x54dc
    1380:	5b 01       	movw	r10, r22
    1382:	6c 01       	movw	r12, r24
    1384:	2f 8d       	ldd	r18, Y+31	; 0x1f
    1386:	38 a1       	ldd	r19, Y+32	; 0x20
    1388:	b9 01       	movw	r22, r18
    138a:	88 27       	eor	r24, r24
    138c:	77 fd       	sbrc	r23, 7
    138e:	80 95       	com	r24
    1390:	98 2f       	mov	r25, r24
    1392:	0e 94 d7 2b 	call	0x57ae	;  0x57ae
    1396:	28 ed       	ldi	r18, 0xD8	; 216
    1398:	33 e2       	ldi	r19, 0x23	; 35
    139a:	4f e9       	ldi	r20, 0x9F	; 159
    139c:	5a e3       	ldi	r21, 0x3A	; 58
    139e:	0e 94 0a 2d 	call	0x5a14	;  0x5a14
    13a2:	20 e0       	ldi	r18, 0x00	; 0
    13a4:	30 e0       	ldi	r19, 0x00	; 0
    13a6:	4a ef       	ldi	r20, 0xFA	; 250
    13a8:	53 e4       	ldi	r21, 0x43	; 67
    13aa:	0e 94 3c 2b 	call	0x5678	;  0x5678
    13ae:	7b 01       	movw	r14, r22
    13b0:	8c 01       	movw	r16, r24
    13b2:	6b 8d       	ldd	r22, Y+27	; 0x1b
    13b4:	7c 8d       	ldd	r23, Y+28	; 0x1c
    13b6:	8d 8d       	ldd	r24, Y+29	; 0x1d
    13b8:	9e 8d       	ldd	r25, Y+30	; 0x1e
    13ba:	2d ec       	ldi	r18, 0xCD	; 205
    13bc:	3c ec       	ldi	r19, 0xCC	; 204
    13be:	4c ec       	ldi	r20, 0xCC	; 204
    13c0:	5d e3       	ldi	r21, 0x3D	; 61
    13c2:	0e 94 0a 2d 	call	0x5a14	;  0x5a14
    13c6:	9b 01       	movw	r18, r22
    13c8:	ac 01       	movw	r20, r24
    13ca:	c8 01       	movw	r24, r16
    13cc:	b7 01       	movw	r22, r14
    13ce:	0e 94 6f 2a 	call	0x54de	;  0x54de
    13d2:	9b 01       	movw	r18, r22
    13d4:	ac 01       	movw	r20, r24
    13d6:	c6 01       	movw	r24, r12
    13d8:	b5 01       	movw	r22, r10
    13da:	0e 94 6f 2a 	call	0x54de	;  0x54de
    13de:	2b ed       	ldi	r18, 0xDB	; 219
    13e0:	3f e0       	ldi	r19, 0x0F	; 15
    13e2:	49 e4       	ldi	r20, 0x49	; 73
    13e4:	50 e4       	ldi	r21, 0x40	; 64
    13e6:	0e 94 6f 2a 	call	0x54de	;  0x54de
    13ea:	69 a7       	std	Y+41, r22	; 0x29
    13ec:	7a a7       	std	Y+42, r23	; 0x2a
    13ee:	8b a7       	std	Y+43, r24	; 0x2b
    13f0:	9c a7       	std	Y+44, r25	; 0x2c
    13f2:	6b 88       	ldd	r6, Y+19	; 0x13
    13f4:	7c 88       	ldd	r7, Y+20	; 0x14
    13f6:	88 24       	eor	r8, r8
    13f8:	99 24       	eor	r9, r9
    13fa:	1d ae       	std	Y+61, r1	; 0x3d
    13fc:	3c e3       	ldi	r19, 0x3C	; 60
    13fe:	3e af       	std	Y+62, r19	; 0x3e
    1400:	8c e1       	ldi	r24, 0x1C	; 28
    1402:	48 2e       	mov	r4, r24
    1404:	06 e4       	ldi	r16, 0x46	; 70
    1406:	50 2e       	mov	r5, r16
    1408:	f3 01       	movw	r30, r6
    140a:	a0 8d       	ldd	r26, Z+24	; 0x18
    140c:	b1 8d       	ldd	r27, Z+25	; 0x19
    140e:	ed 91       	ld	r30, X+
    1410:	fc 91       	ld	r31, X
    1412:	11 97       	sbiw	r26, 0x01	; 1
    1414:	a0 80       	ld	r10, Z
    1416:	b1 80       	ldd	r11, Z+1	; 0x01
    1418:	cd 01       	movw	r24, r26
    141a:	4f 85       	ldd	r20, Y+15	; 0x0f
    141c:	58 89       	ldd	r21, Y+16	; 0x10
    141e:	69 89       	ldd	r22, Y+17	; 0x11
    1420:	7a 89       	ldd	r23, Y+18	; 0x12
    1422:	0b 85       	ldd	r16, Y+11	; 0x0b
    1424:	1c 85       	ldd	r17, Y+12	; 0x0c
    1426:	2d 85       	ldd	r18, Y+13	; 0x0d
    1428:	3e 85       	ldd	r19, Y+14	; 0x0e
    142a:	e9 a5       	ldd	r30, Y+41	; 0x29
    142c:	fa a5       	ldd	r31, Y+42	; 0x2a
    142e:	ab a5       	ldd	r26, Y+43	; 0x2b
    1430:	22 96       	adiw	r28, 0x02	; 2
    1432:	af af       	std	Y+63, r26	; 0x3f
    1434:	22 97       	sbiw	r28, 0x02	; 2
    1436:	bc a5       	ldd	r27, Y+44	; 0x2c
    1438:	23 96       	adiw	r28, 0x03	; 3
    143a:	bf af       	std	Y+63, r27	; 0x3f
    143c:	23 97       	sbiw	r28, 0x03	; 3
    143e:	6f 01       	movw	r12, r30
    1440:	7d 01       	movw	r14, r26
    1442:	f5 01       	movw	r30, r10
    1444:	09 95       	icall
    1446:	7b 01       	movw	r14, r22
    1448:	8c 01       	movw	r16, r24
    144a:	2d ad       	ldd	r18, Y+61	; 0x3d
    144c:	3e ad       	ldd	r19, Y+62	; 0x3e
    144e:	a2 01       	movw	r20, r4
    1450:	0e 94 35 2b 	call	0x566a	;  0x566a
    1454:	87 fd       	sbrc	r24, 7
    1456:	05 c0       	rjmp	.+10     	;  0x1462
    1458:	8d ad       	ldd	r24, Y+61	; 0x3d
    145a:	9e ad       	ldd	r25, Y+62	; 0x3e
    145c:	d2 01       	movw	r26, r4
    145e:	7c 01       	movw	r14, r24
    1460:	8d 01       	movw	r16, r26
    1462:	08 94       	sec
    1464:	81 1c       	adc	r8, r1
    1466:	91 1c       	adc	r9, r1
    1468:	e2 e0       	ldi	r30, 0x02	; 2
    146a:	f0 e0       	ldi	r31, 0x00	; 0
    146c:	6e 0e       	add	r6, r30
    146e:	7f 1e       	adc	r7, r31
    1470:	f6 e0       	ldi	r31, 0x06	; 6
    1472:	8f 16       	cp	r8, r31
    1474:	91 04       	cpc	r9, r1
    1476:	31 f0       	breq	.+12     	;  0x1484
    1478:	d8 01       	movw	r26, r16
    147a:	c7 01       	movw	r24, r14
    147c:	ed ae       	std	Y+61, r14	; 0x3d
    147e:	9e af       	std	Y+62, r25	; 0x3e
    1480:	2d 01       	movw	r4, r26
    1482:	c2 cf       	rjmp	.-124    	;  0x1408
    1484:	c8 01       	movw	r24, r16
    1486:	b7 01       	movw	r22, r14
    1488:	ab ad       	ldd	r26, Y+59	; 0x3b
    148a:	bc ad       	ldd	r27, Y+60	; 0x3c
    148c:	2d 91       	ld	r18, X+
    148e:	3d 91       	ld	r19, X+
    1490:	4d 91       	ld	r20, X+
    1492:	5c 91       	ld	r21, X
    1494:	0e 94 6e 2a 	call	0x54dc	;  0x54dc
    1498:	9b 01       	movw	r18, r22
    149a:	ac 01       	movw	r20, r24
    149c:	0e 94 0a 2d 	call	0x5a14	;  0x5a14
    14a0:	0e 94 a4 2b 	call	0x5748	;  0x5748
    14a4:	2b 01       	movw	r4, r22
    14a6:	3c 01       	movw	r6, r24
    14a8:	00 d0       	rcall	.+0      	;  0x14aa
    14aa:	00 d0       	rcall	.+0      	;  0x14ac
    14ac:	ed b7       	in	r30, 0x3d	; 61
    14ae:	fe b7       	in	r31, 0x3e	; 62
    14b0:	11 82       	std	Z+1, r1	; 0x01
    14b2:	12 82       	std	Z+2, r1	; 0x02
    14b4:	13 82       	std	Z+3, r1	; 0x03
    14b6:	14 82       	std	Z+4, r1	; 0x04
    14b8:	20 e0       	ldi	r18, 0x00	; 0
    14ba:	30 e0       	ldi	r19, 0x00	; 0
    14bc:	40 e0       	ldi	r20, 0x00	; 0
    14be:	50 e0       	ldi	r21, 0x00	; 0
    14c0:	10 e6       	ldi	r17, 0x60	; 96
    14c2:	e1 2e       	mov	r14, r17
    14c4:	1a ee       	ldi	r17, 0xEA	; 234
    14c6:	f1 2e       	mov	r15, r17
    14c8:	01 2d       	mov	r16, r1
    14ca:	11 2d       	mov	r17, r1
    14cc:	aa 24       	eor	r10, r10
    14ce:	bb 24       	eor	r11, r11
    14d0:	65 01       	movw	r12, r10
    14d2:	0e 94 38 27 	call	0x4e70	;  0x4e70
    14d6:	0e 94 d7 2b 	call	0x57ae	;  0x57ae
    14da:	0f 90       	pop	r0
    14dc:	0f 90       	pop	r0
    14de:	0f 90       	pop	r0
    14e0:	0f 90       	pop	r0
    14e2:	2d ec       	ldi	r18, 0xCD	; 205
    14e4:	3c ec       	ldi	r19, 0xCC	; 204
    14e6:	4c ec       	ldi	r20, 0xCC	; 204
    14e8:	5d e3       	ldi	r21, 0x3D	; 61
    14ea:	0e 94 35 2b 	call	0x566a	;  0x566a
    14ee:	88 23       	and	r24, r24
    14f0:	2c f4       	brge	.+10     	;  0x14fc
    14f2:	2d ec       	ldi	r18, 0xCD	; 205
    14f4:	3c ec       	ldi	r19, 0xCC	; 204
    14f6:	4c ec       	ldi	r20, 0xCC	; 204
    14f8:	5d e3       	ldi	r21, 0x3D	; 61
    14fa:	4f c0       	rjmp	.+158    	;  0x159a
    14fc:	00 d0       	rcall	.+0      	;  0x14fe
    14fe:	00 d0       	rcall	.+0      	;  0x1500
    1500:	ad b7       	in	r26, 0x3d	; 61
    1502:	be b7       	in	r27, 0x3e	; 62
    1504:	11 96       	adiw	r26, 0x01	; 1
    1506:	1d 92       	st	X+, r1
    1508:	1d 92       	st	X+, r1
    150a:	1d 92       	st	X+, r1
    150c:	1c 92       	st	X, r1
    150e:	14 97       	sbiw	r26, 0x04	; 4
    1510:	c3 01       	movw	r24, r6
    1512:	b2 01       	movw	r22, r4
    1514:	20 e0       	ldi	r18, 0x00	; 0
    1516:	30 e0       	ldi	r19, 0x00	; 0
    1518:	40 e0       	ldi	r20, 0x00	; 0
    151a:	50 e0       	ldi	r21, 0x00	; 0
    151c:	b0 e6       	ldi	r27, 0x60	; 96
    151e:	eb 2e       	mov	r14, r27
    1520:	ba ee       	ldi	r27, 0xEA	; 234
    1522:	fb 2e       	mov	r15, r27
    1524:	01 2d       	mov	r16, r1
    1526:	11 2d       	mov	r17, r1
    1528:	aa 24       	eor	r10, r10
    152a:	bb 24       	eor	r11, r11
    152c:	65 01       	movw	r12, r10
    152e:	0e 94 38 27 	call	0x4e70	;  0x4e70
    1532:	0e 94 d7 2b 	call	0x57ae	;  0x57ae
    1536:	0f 90       	pop	r0
    1538:	0f 90       	pop	r0
    153a:	0f 90       	pop	r0
    153c:	0f 90       	pop	r0
    153e:	26 e6       	ldi	r18, 0x66	; 102
    1540:	36 e6       	ldi	r19, 0x66	; 102
    1542:	46 e6       	ldi	r20, 0x66	; 102
    1544:	5f e3       	ldi	r21, 0x3F	; 63
    1546:	0e 94 ff 2c 	call	0x59fe	;  0x59fe
    154a:	18 16       	cp	r1, r24
    154c:	2c f4       	brge	.+10     	;  0x1558
    154e:	26 e6       	ldi	r18, 0x66	; 102
    1550:	36 e6       	ldi	r19, 0x66	; 102
    1552:	46 e6       	ldi	r20, 0x66	; 102
    1554:	5f e3       	ldi	r21, 0x3F	; 63
    1556:	21 c0       	rjmp	.+66     	;  0x159a
    1558:	00 d0       	rcall	.+0      	;  0x155a
    155a:	00 d0       	rcall	.+0      	;  0x155c
    155c:	ed b7       	in	r30, 0x3d	; 61
    155e:	fe b7       	in	r31, 0x3e	; 62
    1560:	11 82       	std	Z+1, r1	; 0x01
    1562:	12 82       	std	Z+2, r1	; 0x02
    1564:	13 82       	std	Z+3, r1	; 0x03
    1566:	14 82       	std	Z+4, r1	; 0x04
    1568:	c3 01       	movw	r24, r6
    156a:	b2 01       	movw	r22, r4
    156c:	20 e0       	ldi	r18, 0x00	; 0
    156e:	30 e0       	ldi	r19, 0x00	; 0
    1570:	40 e0       	ldi	r20, 0x00	; 0
    1572:	50 e0       	ldi	r21, 0x00	; 0
    1574:	a0 e6       	ldi	r26, 0x60	; 96
    1576:	ea 2e       	mov	r14, r26
    1578:	aa ee       	ldi	r26, 0xEA	; 234
    157a:	fa 2e       	mov	r15, r26
    157c:	01 2d       	mov	r16, r1
    157e:	11 2d       	mov	r17, r1
    1580:	aa 24       	eor	r10, r10
    1582:	bb 24       	eor	r11, r11
    1584:	65 01       	movw	r12, r10
    1586:	0e 94 38 27 	call	0x4e70	;  0x4e70
    158a:	0e 94 d7 2b 	call	0x57ae	;  0x57ae
    158e:	9b 01       	movw	r18, r22
    1590:	ac 01       	movw	r20, r24
    1592:	0f 90       	pop	r0
    1594:	0f 90       	pop	r0
    1596:	0f 90       	pop	r0
    1598:	0f 90       	pop	r0
    159a:	6d 81       	ldd	r22, Y+5	; 0x05
    159c:	7e 81       	ldd	r23, Y+6	; 0x06
    159e:	8f 81       	ldd	r24, Y+7	; 0x07
    15a0:	98 85       	ldd	r25, Y+8	; 0x08
    15a2:	0e 94 0a 2d 	call	0x5a14	;  0x5a14
    15a6:	7b 01       	movw	r14, r22
    15a8:	8c 01       	movw	r16, r24
    15aa:	26 e6       	ldi	r18, 0x66	; 102
    15ac:	36 e6       	ldi	r19, 0x66	; 102
    15ae:	46 e6       	ldi	r20, 0x66	; 102
    15b0:	5f e3       	ldi	r21, 0x3F	; 63
    15b2:	0e 94 ff 2c 	call	0x59fe	;  0x59fe
    15b6:	18 16       	cp	r1, r24
    15b8:	5c f4       	brge	.+22     	;  0x15d0
    15ba:	0f 2e       	mov	r0, r31
    15bc:	f6 e6       	ldi	r31, 0x66	; 102
    15be:	ef 2e       	mov	r14, r31
    15c0:	f6 e6       	ldi	r31, 0x66	; 102
    15c2:	ff 2e       	mov	r15, r31
    15c4:	f6 e6       	ldi	r31, 0x66	; 102
    15c6:	0f 2f       	mov	r16, r31
    15c8:	ff e3       	ldi	r31, 0x3F	; 63
    15ca:	1f 2f       	mov	r17, r31
    15cc:	f0 2d       	mov	r31, r0
    15ce:	14 c0       	rjmp	.+40     	;  0x15f8
    15d0:	c8 01       	movw	r24, r16
    15d2:	b7 01       	movw	r22, r14
    15d4:	2d ec       	ldi	r18, 0xCD	; 205
    15d6:	3c ec       	ldi	r19, 0xCC	; 204
    15d8:	4c ec       	ldi	r20, 0xCC	; 204
    15da:	5d e3       	ldi	r21, 0x3D	; 61
    15dc:	0e 94 35 2b 	call	0x566a	;  0x566a
    15e0:	88 23       	and	r24, r24
    15e2:	54 f4       	brge	.+20     	;  0x15f8
    15e4:	0f 2e       	mov	r0, r31
    15e6:	fd ec       	ldi	r31, 0xCD	; 205
    15e8:	ef 2e       	mov	r14, r31
    15ea:	fc ec       	ldi	r31, 0xCC	; 204
    15ec:	ff 2e       	mov	r15, r31
    15ee:	fc ec       	ldi	r31, 0xCC	; 204
    15f0:	0f 2f       	mov	r16, r31
    15f2:	fd e3       	ldi	r31, 0x3D	; 61
    15f4:	1f 2f       	mov	r17, r31
    15f6:	f0 2d       	mov	r31, r0
    15f8:	c8 01       	movw	r24, r16
    15fa:	b7 01       	movw	r22, r14
    15fc:	20 e0       	ldi	r18, 0x00	; 0
    15fe:	30 e0       	ldi	r19, 0x00	; 0
    1600:	4f e7       	ldi	r20, 0x7F	; 127
    1602:	53 e4       	ldi	r21, 0x43	; 67
    1604:	0e 94 0a 2d 	call	0x5a14	;  0x5a14
    1608:	0e 94 a9 2b 	call	0x5752	;  0x5752
    160c:	21 96       	adiw	r28, 0x01	; 1
    160e:	ae ad       	ldd	r26, Y+62	; 0x3e
    1610:	bf ad       	ldd	r27, Y+63	; 0x3f
    1612:	21 97       	sbiw	r28, 0x01	; 1
    1614:	12 96       	adiw	r26, 0x02	; 2
    1616:	6c 93       	st	X, r22
    1618:	12 97       	sbiw	r26, 0x02	; 2
    161a:	ed 89       	ldd	r30, Y+21	; 0x15
    161c:	fe 89       	ldd	r31, Y+22	; 0x16
    161e:	31 96       	adiw	r30, 0x01	; 1
    1620:	fe 8b       	std	Y+22, r31	; 0x16
    1622:	ed 8b       	std	Y+21, r30	; 0x15
    1624:	15 96       	adiw	r26, 0x05	; 5
    1626:	21 96       	adiw	r28, 0x01	; 1
    1628:	bf af       	std	Y+63, r27	; 0x3f
    162a:	ae af       	std	Y+62, r26	; 0x3e
    162c:	21 97       	sbiw	r28, 0x01	; 1
    162e:	3a 97       	sbiw	r30, 0x0a	; 10
    1630:	09 f0       	breq	.+2      	;  0x1634
    1632:	f7 cb       	rjmp	.-2066   	;  0xe22
    1634:	fc e7       	ldi	r31, 0x7C	; 124
    1636:	cf 2e       	mov	r12, r31
    1638:	f1 e0       	ldi	r31, 0x01	; 1
    163a:	df 2e       	mov	r13, r31
    163c:	c2 0c       	add	r12, r2
    163e:	d3 1c       	adc	r13, r3
    1640:	aa 24       	eor	r10, r10
    1642:	bb 24       	eor	r11, r11
    1644:	0f 2e       	mov	r0, r31
    1646:	f0 e0       	ldi	r31, 0x00	; 0
    1648:	ef 2e       	mov	r14, r31
    164a:	f0 e0       	ldi	r31, 0x00	; 0
    164c:	ff 2e       	mov	r15, r31
    164e:	f0 e0       	ldi	r31, 0x00	; 0
    1650:	0f 2f       	mov	r16, r31
    1652:	f0 e0       	ldi	r31, 0x00	; 0
    1654:	1f 2f       	mov	r17, r31
    1656:	f0 2d       	mov	r31, r0
    1658:	d6 01       	movw	r26, r12
    165a:	6c 91       	ld	r22, X
    165c:	70 e0       	ldi	r23, 0x00	; 0
    165e:	88 27       	eor	r24, r24
    1660:	77 fd       	sbrc	r23, 7
    1662:	80 95       	com	r24
    1664:	98 2f       	mov	r25, r24
    1666:	0e 94 d7 2b 	call	0x57ae	;  0x57ae
    166a:	9b 01       	movw	r18, r22
    166c:	ac 01       	movw	r20, r24
    166e:	c8 01       	movw	r24, r16
    1670:	b7 01       	movw	r22, r14
    1672:	0e 94 6f 2a 	call	0x54de	;  0x54de
    1676:	7b 01       	movw	r14, r22
    1678:	8c 01       	movw	r16, r24
    167a:	08 94       	sec
    167c:	a1 1c       	adc	r10, r1
    167e:	b1 1c       	adc	r11, r1
    1680:	e5 e0       	ldi	r30, 0x05	; 5
    1682:	f0 e0       	ldi	r31, 0x00	; 0
    1684:	ce 0e       	add	r12, r30
    1686:	df 1e       	adc	r13, r31
    1688:	fa e0       	ldi	r31, 0x0A	; 10
    168a:	af 16       	cp	r10, r31
    168c:	b1 04       	cpc	r11, r1
    168e:	21 f7       	brne	.-56     	;  0x1658
    1690:	20 e0       	ldi	r18, 0x00	; 0
    1692:	30 e0       	ldi	r19, 0x00	; 0
    1694:	40 e2       	ldi	r20, 0x20	; 32
    1696:	51 e4       	ldi	r21, 0x41	; 65
    1698:	0e 94 3c 2b 	call	0x5678	;  0x5678
    169c:	69 83       	std	Y+1, r22	; 0x01
    169e:	7a 83       	std	Y+2, r23	; 0x02
    16a0:	8b 83       	std	Y+3, r24	; 0x03
    16a2:	9c 83       	std	Y+4, r25	; 0x04
    16a4:	5b 01       	movw	r10, r22
    16a6:	6c 01       	movw	r12, r24
    16a8:	88 24       	eor	r8, r8
    16aa:	99 24       	eor	r9, r9
    16ac:	21 96       	adiw	r28, 0x01	; 1
    16ae:	1f ae       	std	Y+63, r1	; 0x3f
    16b0:	1e ae       	std	Y+62, r1	; 0x3e
    16b2:	21 97       	sbiw	r28, 0x01	; 1
    16b4:	70 c0       	rjmp	.+224    	;  0x1796
    16b6:	c6 01       	movw	r24, r12
    16b8:	b5 01       	movw	r22, r10
    16ba:	a8 01       	movw	r20, r16
    16bc:	97 01       	movw	r18, r14
    16be:	0e 94 6e 2a 	call	0x54dc	;  0x54dc
    16c2:	5b 01       	movw	r10, r22
    16c4:	6c 01       	movw	r12, r24
    16c6:	c4 01       	movw	r24, r8
    16c8:	01 96       	adiw	r24, 0x01	; 1
    16ca:	6a e0       	ldi	r22, 0x0A	; 10
    16cc:	70 e0       	ldi	r23, 0x00	; 0
    16ce:	0e 94 1d 2e 	call	0x5c3a	;  0x5c3a
    16d2:	4c 01       	movw	r8, r24
    16d4:	05 c0       	rjmp	.+10     	;  0x16e0
    16d6:	29 01       	movw	r4, r18
    16d8:	66 24       	eor	r6, r6
    16da:	57 fc       	sbrc	r5, 7
    16dc:	60 94       	com	r6
    16de:	76 2c       	mov	r7, r6
    16e0:	c3 01       	movw	r24, r6
    16e2:	b2 01       	movw	r22, r4
    16e4:	0e 94 d7 2b 	call	0x57ae	;  0x57ae
    16e8:	7b 01       	movw	r14, r22
    16ea:	8c 01       	movw	r16, r24
    16ec:	c6 01       	movw	r24, r12
    16ee:	b5 01       	movw	r22, r10
    16f0:	a8 01       	movw	r20, r16
    16f2:	97 01       	movw	r18, r14
    16f4:	0e 94 ff 2c 	call	0x59fe	;  0x59fe
    16f8:	18 16       	cp	r1, r24
    16fa:	ec f2       	brlt	.-70     	;  0x16b6
    16fc:	0e 94 c7 19 	call	0x338e	;  0x338e
    1700:	7b 01       	movw	r14, r22
    1702:	8c 01       	movw	r16, r24
    1704:	0e 94 c7 19 	call	0x338e	;  0x338e
    1708:	20 e0       	ldi	r18, 0x00	; 0
    170a:	30 e0       	ldi	r19, 0x00	; 0
    170c:	40 e0       	ldi	r20, 0x00	; 0
    170e:	5f e3       	ldi	r21, 0x3F	; 63
    1710:	0e 94 ff 2c 	call	0x59fe	;  0x59fe
    1714:	18 16       	cp	r1, r24
    1716:	4c f5       	brge	.+82     	;  0x176a
    1718:	21 96       	adiw	r28, 0x01	; 1
    171a:	ae ad       	ldd	r26, Y+62	; 0x3e
    171c:	bf ad       	ldd	r27, Y+63	; 0x3f
    171e:	21 97       	sbiw	r28, 0x01	; 1
    1720:	aa 0f       	add	r26, r26
    1722:	bb 1f       	adc	r27, r27
    1724:	aa 0f       	add	r26, r26
    1726:	bb 1f       	adc	r27, r27
    1728:	21 96       	adiw	r28, 0x01	; 1
    172a:	2e ad       	ldd	r18, Y+62	; 0x3e
    172c:	3f ad       	ldd	r19, Y+63	; 0x3f
    172e:	21 97       	sbiw	r28, 0x01	; 1
    1730:	a2 0f       	add	r26, r18
    1732:	b3 1f       	adc	r27, r19
    1734:	a2 0d       	add	r26, r2
    1736:	b3 1d       	adc	r27, r3
    1738:	a4 55       	subi	r26, 0x54	; 84
    173a:	be 4f       	sbci	r27, 0xFE	; 254
    173c:	f4 01       	movw	r30, r8
    173e:	ee 0f       	add	r30, r30
    1740:	ff 1f       	adc	r31, r31
    1742:	ee 0f       	add	r30, r30
    1744:	ff 1f       	adc	r31, r31
    1746:	e8 0d       	add	r30, r8
    1748:	f9 1d       	adc	r31, r9
    174a:	e2 0d       	add	r30, r2
    174c:	f3 1d       	adc	r31, r3
    174e:	e6 58       	subi	r30, 0x86	; 134
    1750:	fe 4f       	sbci	r31, 0xFE	; 254
    1752:	81 91       	ld	r24, Z+
    1754:	8d 93       	st	X+, r24
    1756:	81 91       	ld	r24, Z+
    1758:	8d 93       	st	X+, r24
    175a:	80 81       	ld	r24, Z
    175c:	8c 93       	st	X, r24
    175e:	2f 5f       	subi	r18, 0xFF	; 255
    1760:	3f 4f       	sbci	r19, 0xFF	; 255
    1762:	21 96       	adiw	r28, 0x01	; 1
    1764:	3f af       	std	Y+63, r19	; 0x3f
    1766:	2e af       	std	Y+62, r18	; 0x3e
    1768:	21 97       	sbiw	r28, 0x01	; 1
    176a:	21 96       	adiw	r28, 0x01	; 1
    176c:	8e ad       	ldd	r24, Y+62	; 0x3e
    176e:	9f ad       	ldd	r25, Y+63	; 0x3f
    1770:	21 97       	sbiw	r28, 0x01	; 1
    1772:	0a 97       	sbiw	r24, 0x0a	; 10
    1774:	4c f5       	brge	.+82     	;  0x17c8
    1776:	c8 01       	movw	r24, r16
    1778:	b7 01       	movw	r22, r14
    177a:	29 81       	ldd	r18, Y+1	; 0x01
    177c:	3a 81       	ldd	r19, Y+2	; 0x02
    177e:	4b 81       	ldd	r20, Y+3	; 0x03
    1780:	5c 81       	ldd	r21, Y+4	; 0x04
    1782:	0e 94 0a 2d 	call	0x5a14	;  0x5a14
    1786:	9b 01       	movw	r18, r22
    1788:	ac 01       	movw	r20, r24
    178a:	c6 01       	movw	r24, r12
    178c:	b5 01       	movw	r22, r10
    178e:	0e 94 6f 2a 	call	0x54de	;  0x54de
    1792:	5b 01       	movw	r10, r22
    1794:	6c 01       	movw	r12, r24
    1796:	21 96       	adiw	r28, 0x01	; 1
    1798:	ee ad       	ldd	r30, Y+62	; 0x3e
    179a:	ff ad       	ldd	r31, Y+63	; 0x3f
    179c:	21 97       	sbiw	r28, 0x01	; 1
    179e:	ee 0f       	add	r30, r30
    17a0:	ff 1f       	adc	r31, r31
    17a2:	ee 0f       	add	r30, r30
    17a4:	ff 1f       	adc	r31, r31
    17a6:	21 96       	adiw	r28, 0x01	; 1
    17a8:	ae ad       	ldd	r26, Y+62	; 0x3e
    17aa:	bf ad       	ldd	r27, Y+63	; 0x3f
    17ac:	21 97       	sbiw	r28, 0x01	; 1
    17ae:	ea 0f       	add	r30, r26
    17b0:	fb 1f       	adc	r31, r27
    17b2:	e2 0d       	add	r30, r2
    17b4:	f3 1d       	adc	r31, r3
    17b6:	e4 58       	subi	r30, 0x84	; 132
    17b8:	fe 4f       	sbci	r31, 0xFE	; 254
    17ba:	80 81       	ld	r24, Z
    17bc:	28 2f       	mov	r18, r24
    17be:	30 e0       	ldi	r19, 0x00	; 0
    17c0:	88 23       	and	r24, r24
    17c2:	09 f4       	brne	.+2      	;  0x17c6
    17c4:	9b cf       	rjmp	.-202    	;  0x16fc
    17c6:	87 cf       	rjmp	.-242    	;  0x16d6
    17c8:	d1 01       	movw	r26, r2
    17ca:	a4 55       	subi	r26, 0x54	; 84
    17cc:	be 4f       	sbci	r27, 0xFE	; 254
    17ce:	49 85       	ldd	r20, Y+9	; 0x09
    17d0:	5a 85       	ldd	r21, Y+10	; 0x0a
    17d2:	20 e0       	ldi	r18, 0x00	; 0
    17d4:	30 e0       	ldi	r19, 0x00	; 0
    17d6:	8c 91       	ld	r24, X
    17d8:	fa 01       	movw	r30, r20
    17da:	80 83       	st	Z, r24
    17dc:	11 96       	adiw	r26, 0x01	; 1
    17de:	8c 91       	ld	r24, X
    17e0:	11 97       	sbiw	r26, 0x01	; 1
    17e2:	81 83       	std	Z+1, r24	; 0x01
    17e4:	12 96       	adiw	r26, 0x02	; 2
    17e6:	8c 91       	ld	r24, X
    17e8:	12 97       	sbiw	r26, 0x02	; 2
    17ea:	82 83       	std	Z+2, r24	; 0x02
    17ec:	2f 5f       	subi	r18, 0xFF	; 255
    17ee:	3f 4f       	sbci	r19, 0xFF	; 255
    17f0:	15 96       	adiw	r26, 0x05	; 5
    17f2:	4b 5f       	subi	r20, 0xFB	; 251
    17f4:	5f 4f       	sbci	r21, 0xFF	; 255
    17f6:	2a 30       	cpi	r18, 0x0A	; 10
    17f8:	31 05       	cpc	r19, r1
    17fa:	69 f7       	brne	.-38     	;  0x17d6
    17fc:	0e 94 c7 19 	call	0x338e	;  0x338e
    1800:	20 e0       	ldi	r18, 0x00	; 0
    1802:	30 e0       	ldi	r19, 0x00	; 0
    1804:	48 ec       	ldi	r20, 0xC8	; 200
    1806:	53 e4       	ldi	r21, 0x43	; 67
    1808:	0e 94 0a 2d 	call	0x5a14	;  0x5a14
    180c:	20 e0       	ldi	r18, 0x00	; 0
    180e:	30 e0       	ldi	r19, 0x00	; 0
    1810:	40 e2       	ldi	r20, 0x20	; 32
    1812:	51 e4       	ldi	r21, 0x41	; 65
    1814:	0e 94 0a 2d 	call	0x5a14	;  0x5a14
    1818:	0e 94 a4 2b 	call	0x5748	;  0x5748
    181c:	cb 01       	movw	r24, r22
    181e:	01 97       	sbiw	r24, 0x01	; 1
    1820:	09 97       	sbiw	r24, 0x09	; 9
    1822:	b8 f4       	brcc	.+46     	;  0x1852
    1824:	cb 01       	movw	r24, r22
    1826:	88 0f       	add	r24, r24
    1828:	99 1f       	adc	r25, r25
    182a:	88 0f       	add	r24, r24
    182c:	99 1f       	adc	r25, r25
    182e:	86 0f       	add	r24, r22
    1830:	97 1f       	adc	r25, r23
    1832:	86 58       	subi	r24, 0x86	; 134
    1834:	9e 4f       	sbci	r25, 0xFE	; 254
    1836:	26 ee       	ldi	r18, 0xE6	; 230
    1838:	31 e0       	ldi	r19, 0x01	; 1
    183a:	22 0e       	add	r2, r18
    183c:	33 1e       	adc	r3, r19
    183e:	d1 01       	movw	r26, r2
    1840:	6d 91       	ld	r22, X+
    1842:	7c 91       	ld	r23, X
    1844:	ea e1       	ldi	r30, 0x1A	; 26
    1846:	fe ef       	ldi	r31, 0xFE	; 254
    1848:	2e 0e       	add	r2, r30
    184a:	3f 1e       	adc	r3, r31
    184c:	82 0d       	add	r24, r2
    184e:	93 1d       	adc	r25, r3
    1850:	31 d9       	rcall	.-3486   	;  0xab4
    1852:	91 01       	movw	r18, r2
    1854:	20 51       	subi	r18, 0x10	; 16
    1856:	3e 4f       	sbci	r19, 0xFE	; 254
    1858:	21 96       	adiw	r28, 0x01	; 1
    185a:	3f af       	std	Y+63, r19	; 0x3f
    185c:	2e af       	std	Y+62, r18	; 0x3e
    185e:	21 97       	sbiw	r28, 0x01	; 1
    1860:	80 e0       	ldi	r24, 0x00	; 0
    1862:	90 e0       	ldi	r25, 0x00	; 0
    1864:	a0 e0       	ldi	r26, 0x00	; 0
    1866:	b0 e0       	ldi	r27, 0x00	; 0
    1868:	f9 01       	movw	r30, r18
    186a:	80 83       	st	Z, r24
    186c:	91 83       	std	Z+1, r25	; 0x01
    186e:	a2 83       	std	Z+2, r26	; 0x02
    1870:	b3 83       	std	Z+3, r27	; 0x03
    1872:	44 ef       	ldi	r20, 0xF4	; 244
    1874:	a4 2e       	mov	r10, r20
    1876:	41 e0       	ldi	r20, 0x01	; 1
    1878:	b4 2e       	mov	r11, r20
    187a:	a2 0c       	add	r10, r2
    187c:	b3 1c       	adc	r11, r3
    187e:	f5 01       	movw	r30, r10
    1880:	80 83       	st	Z, r24
    1882:	91 83       	std	Z+1, r25	; 0x01
    1884:	a2 83       	std	Z+2, r26	; 0x02
    1886:	b3 83       	std	Z+3, r27	; 0x03
    1888:	89 01       	movw	r16, r18
    188a:	45 01       	movw	r8, r10
    188c:	2c ea       	ldi	r18, 0xAC	; 172
    188e:	31 e0       	ldi	r19, 0x01	; 1
    1890:	22 0e       	add	r2, r18
    1892:	33 1e       	adc	r3, r19
    1894:	a9 85       	ldd	r26, Y+9	; 0x09
    1896:	ba 85       	ldd	r27, Y+10	; 0x0a
    1898:	6c 91       	ld	r22, X
    189a:	70 e0       	ldi	r23, 0x00	; 0
    189c:	88 27       	eor	r24, r24
    189e:	77 fd       	sbrc	r23, 7
    18a0:	80 95       	com	r24
    18a2:	98 2f       	mov	r25, r24
    18a4:	0e 94 d7 2b 	call	0x57ae	;  0x57ae
    18a8:	9b 01       	movw	r18, r22
    18aa:	ac 01       	movw	r20, r24
    18ac:	f8 01       	movw	r30, r16
    18ae:	60 81       	ld	r22, Z
    18b0:	71 81       	ldd	r23, Z+1	; 0x01
    18b2:	82 81       	ldd	r24, Z+2	; 0x02
    18b4:	93 81       	ldd	r25, Z+3	; 0x03
    18b6:	0e 94 6f 2a 	call	0x54de	;  0x54de
    18ba:	2b 01       	movw	r4, r22
    18bc:	3c 01       	movw	r6, r24
    18be:	d8 01       	movw	r26, r16
    18c0:	6d 93       	st	X+, r22
    18c2:	7d 93       	st	X+, r23
    18c4:	8d 93       	st	X+, r24
    18c6:	9c 93       	st	X, r25
    18c8:	13 97       	sbiw	r26, 0x03	; 3
    18ca:	e9 85       	ldd	r30, Y+9	; 0x09
    18cc:	fa 85       	ldd	r31, Y+10	; 0x0a
    18ce:	61 81       	ldd	r22, Z+1	; 0x01
    18d0:	70 e0       	ldi	r23, 0x00	; 0
    18d2:	88 27       	eor	r24, r24
    18d4:	77 fd       	sbrc	r23, 7
    18d6:	80 95       	com	r24
    18d8:	98 2f       	mov	r25, r24
    18da:	0e 94 d7 2b 	call	0x57ae	;  0x57ae
    18de:	9b 01       	movw	r18, r22
    18e0:	ac 01       	movw	r20, r24
    18e2:	d4 01       	movw	r26, r8
    18e4:	6d 91       	ld	r22, X+
    18e6:	7d 91       	ld	r23, X+
    18e8:	8d 91       	ld	r24, X+
    18ea:	9c 91       	ld	r25, X
    18ec:	0e 94 6f 2a 	call	0x54de	;  0x54de
    18f0:	6b 01       	movw	r12, r22
    18f2:	7c 01       	movw	r14, r24
    18f4:	f4 01       	movw	r30, r8
    18f6:	60 83       	st	Z, r22
    18f8:	71 83       	std	Z+1, r23	; 0x01
    18fa:	82 83       	std	Z+2, r24	; 0x02
    18fc:	93 83       	std	Z+3, r25	; 0x03
    18fe:	29 85       	ldd	r18, Y+9	; 0x09
    1900:	3a 85       	ldd	r19, Y+10	; 0x0a
    1902:	2b 5f       	subi	r18, 0xFB	; 251
    1904:	3f 4f       	sbci	r19, 0xFF	; 255
    1906:	3a 87       	std	Y+10, r19	; 0x0a
    1908:	29 87       	std	Y+9, r18	; 0x09
    190a:	22 15       	cp	r18, r2
    190c:	33 05       	cpc	r19, r3
    190e:	11 f6       	brne	.-124    	;  0x1894
    1910:	c3 01       	movw	r24, r6
    1912:	b2 01       	movw	r22, r4
    1914:	20 e0       	ldi	r18, 0x00	; 0
    1916:	30 e0       	ldi	r19, 0x00	; 0
    1918:	40 e2       	ldi	r20, 0x20	; 32
    191a:	51 e4       	ldi	r21, 0x41	; 65
    191c:	0e 94 3c 2b 	call	0x5678	;  0x5678
    1920:	21 96       	adiw	r28, 0x01	; 1
    1922:	ae ad       	ldd	r26, Y+62	; 0x3e
    1924:	bf ad       	ldd	r27, Y+63	; 0x3f
    1926:	21 97       	sbiw	r28, 0x01	; 1
    1928:	6d 93       	st	X+, r22
    192a:	7d 93       	st	X+, r23
    192c:	8d 93       	st	X+, r24
    192e:	9c 93       	st	X, r25
    1930:	13 97       	sbiw	r26, 0x03	; 3
    1932:	c7 01       	movw	r24, r14
    1934:	b6 01       	movw	r22, r12
    1936:	20 e0       	ldi	r18, 0x00	; 0
    1938:	30 e0       	ldi	r19, 0x00	; 0
    193a:	40 e2       	ldi	r20, 0x20	; 32
    193c:	51 e4       	ldi	r21, 0x41	; 65
    193e:	0e 94 3c 2b 	call	0x5678	;  0x5678
    1942:	f5 01       	movw	r30, r10
    1944:	60 83       	st	Z, r22
    1946:	71 83       	std	Z+1, r23	; 0x01
    1948:	82 83       	std	Z+2, r24	; 0x02
    194a:	93 83       	std	Z+3, r25	; 0x03
    194c:	ce 5b       	subi	r28, 0xBE	; 190
    194e:	df 4f       	sbci	r29, 0xFF	; 255
    1950:	0f b6       	in	r0, 0x3f	; 63
    1952:	f8 94       	cli
    1954:	de bf       	out	0x3e, r29	; 62
    1956:	0f be       	out	0x3f, r0	; 63
    1958:	cd bf       	out	0x3d, r28	; 61
    195a:	cf 91       	pop	r28
    195c:	df 91       	pop	r29
    195e:	1f 91       	pop	r17
    1960:	0f 91       	pop	r16
    1962:	ff 90       	pop	r15
    1964:	ef 90       	pop	r14
    1966:	df 90       	pop	r13
    1968:	cf 90       	pop	r12
    196a:	bf 90       	pop	r11
    196c:	af 90       	pop	r10
    196e:	9f 90       	pop	r9
    1970:	8f 90       	pop	r8
    1972:	7f 90       	pop	r7
    1974:	6f 90       	pop	r6
    1976:	5f 90       	pop	r5
    1978:	4f 90       	pop	r4
    197a:	3f 90       	pop	r3
    197c:	2f 90       	pop	r2
    197e:	08 95       	ret
    1980:	0f 93       	push	r16
    1982:	1f 93       	push	r17
    1984:	8c 01       	movw	r16, r24
    1986:	89 e0       	ldi	r24, 0x09	; 9
    1988:	61 e0       	ldi	r22, 0x01	; 1
    198a:	0e 94 a6 28 	call	0x514c	;  0x514c
    198e:	89 e0       	ldi	r24, 0x09	; 9
    1990:	60 e0       	ldi	r22, 0x00	; 0
    1992:	0e 94 e5 28 	call	0x51ca	;  0x51ca
    1996:	8a e0       	ldi	r24, 0x0A	; 10
    1998:	60 e0       	ldi	r22, 0x00	; 0
    199a:	0e 94 a6 28 	call	0x514c	;  0x514c
    199e:	0e 94 e2 27 	call	0x4fc4	;  0x4fc4
    19a2:	f8 01       	movw	r30, r16
    19a4:	66 83       	std	Z+6, r22	; 0x06
    19a6:	77 83       	std	Z+7, r23	; 0x07
    19a8:	80 87       	std	Z+8, r24	; 0x08
    19aa:	91 87       	std	Z+9, r25	; 0x09
    19ac:	c8 01       	movw	r24, r16
    19ae:	0e 94 52 01 	call	0x2a4	;  0x2a4
    19b2:	1f 91       	pop	r17
    19b4:	0f 91       	pop	r16
    19b6:	08 95       	ret
    19b8:	df 92       	push	r13
    19ba:	ef 92       	push	r14
    19bc:	ff 92       	push	r15
    19be:	0f 93       	push	r16
    19c0:	1f 93       	push	r17
    19c2:	cf 93       	push	r28
    19c4:	df 93       	push	r29
    19c6:	ec 01       	movw	r28, r24
    19c8:	d6 2e       	mov	r13, r22
    19ca:	0e 94 e2 27 	call	0x4fc4	;  0x4fc4
    19ce:	68 83       	st	Y, r22
    19d0:	79 83       	std	Y+1, r23	; 0x01
    19d2:	8a 83       	std	Y+2, r24	; 0x02
    19d4:	9b 83       	std	Y+3, r25	; 0x03
    19d6:	e8 80       	ld	r14, Y
    19d8:	f9 80       	ldd	r15, Y+1	; 0x01
    19da:	0a 81       	ldd	r16, Y+2	; 0x02
    19dc:	1b 81       	ldd	r17, Y+3	; 0x03
    19de:	2c 81       	ldd	r18, Y+4	; 0x04
    19e0:	3d 81       	ldd	r19, Y+5	; 0x05
    19e2:	4e 81       	ldd	r20, Y+6	; 0x06
    19e4:	5f 81       	ldd	r21, Y+7	; 0x07
    19e6:	88 85       	ldd	r24, Y+8	; 0x08
    19e8:	99 85       	ldd	r25, Y+9	; 0x09
    19ea:	aa 85       	ldd	r26, Y+10	; 0x0a
    19ec:	bb 85       	ldd	r27, Y+11	; 0x0b
    19ee:	82 0f       	add	r24, r18
    19f0:	93 1f       	adc	r25, r19
    19f2:	a4 1f       	adc	r26, r20
    19f4:	b5 1f       	adc	r27, r21
    19f6:	8e 15       	cp	r24, r14
    19f8:	9f 05       	cpc	r25, r15
    19fa:	a0 07       	cpc	r26, r16
    19fc:	b1 07       	cpc	r27, r17
    19fe:	10 f0       	brcs	.+4      	;  0x1a04
    1a00:	80 e0       	ldi	r24, 0x00	; 0
    1a02:	0b c0       	rjmp	.+22     	;  0x1a1a
    1a04:	dd 20       	and	r13, r13
    1a06:	41 f0       	breq	.+16     	;  0x1a18
    1a08:	88 81       	ld	r24, Y
    1a0a:	99 81       	ldd	r25, Y+1	; 0x01
    1a0c:	aa 81       	ldd	r26, Y+2	; 0x02
    1a0e:	bb 81       	ldd	r27, Y+3	; 0x03
    1a10:	8c 83       	std	Y+4, r24	; 0x04
    1a12:	9d 83       	std	Y+5, r25	; 0x05
    1a14:	ae 83       	std	Y+6, r26	; 0x06
    1a16:	bf 83       	std	Y+7, r27	; 0x07
    1a18:	81 e0       	ldi	r24, 0x01	; 1
    1a1a:	df 91       	pop	r29
    1a1c:	cf 91       	pop	r28
    1a1e:	1f 91       	pop	r17
    1a20:	0f 91       	pop	r16
    1a22:	ff 90       	pop	r15
    1a24:	ef 90       	pop	r14
    1a26:	df 90       	pop	r13
    1a28:	08 95       	ret
    1a2a:	ef 92       	push	r14
    1a2c:	ff 92       	push	r15
    1a2e:	0f 93       	push	r16
    1a30:	1f 93       	push	r17
    1a32:	cf 93       	push	r28
    1a34:	df 93       	push	r29
    1a36:	ec 01       	movw	r28, r24
    1a38:	8a 89       	ldd	r24, Y+18	; 0x12
    1a3a:	83 30       	cpi	r24, 0x03	; 3
    1a3c:	09 f4       	brne	.+2      	;  0x1a40
    1a3e:	69 c0       	rjmp	.+210    	;  0x1b12
    1a40:	84 30       	cpi	r24, 0x04	; 4
    1a42:	30 f4       	brcc	.+12     	;  0x1a50
    1a44:	81 30       	cpi	r24, 0x01	; 1
    1a46:	49 f1       	breq	.+82     	;  0x1a9a
    1a48:	82 30       	cpi	r24, 0x02	; 2
    1a4a:	08 f0       	brcs	.+2      	;  0x1a4e
    1a4c:	40 c0       	rjmp	.+128    	;  0x1ace
    1a4e:	0a c0       	rjmp	.+20     	;  0x1a64
    1a50:	85 30       	cpi	r24, 0x05	; 5
    1a52:	09 f4       	brne	.+2      	;  0x1a56
    1a54:	ac c0       	rjmp	.+344    	;  0x1bae
    1a56:	85 30       	cpi	r24, 0x05	; 5
    1a58:	08 f4       	brcc	.+2      	;  0x1a5c
    1a5a:	a1 c0       	rjmp	.+322    	;  0x1b9e
    1a5c:	86 30       	cpi	r24, 0x06	; 6
    1a5e:	09 f0       	breq	.+2      	;  0x1a62
    1a60:	be c0       	rjmp	.+380    	;  0x1bde
    1a62:	ba c0       	rjmp	.+372    	;  0x1bd8
    1a64:	ce 01       	movw	r24, r28
    1a66:	02 96       	adiw	r24, 0x02	; 2
    1a68:	60 e0       	ldi	r22, 0x00	; 0
    1a6a:	a6 df       	rcall	.-180    	;  0x19b8
    1a6c:	88 23       	and	r24, r24
    1a6e:	09 f4       	brne	.+2      	;  0x1a72
    1a70:	b6 c0       	rjmp	.+364    	;  0x1bde
    1a72:	1a 99       	sbic	0x03, 2	; 3
    1a74:	9a c0       	rjmp	.+308    	;  0x1baa
    1a76:	88 e0       	ldi	r24, 0x08	; 8
    1a78:	90 e0       	ldi	r25, 0x00	; 0
    1a7a:	a0 e0       	ldi	r26, 0x00	; 0
    1a7c:	b0 e0       	ldi	r27, 0x00	; 0
    1a7e:	8a 87       	std	Y+10, r24	; 0x0a
    1a80:	9b 87       	std	Y+11, r25	; 0x0b
    1a82:	ac 87       	std	Y+12, r26	; 0x0c
    1a84:	bd 87       	std	Y+13, r27	; 0x0d
    1a86:	0e 94 e2 27 	call	0x4fc4	;  0x4fc4
    1a8a:	6e 83       	std	Y+6, r22	; 0x06
    1a8c:	7f 83       	std	Y+7, r23	; 0x07
    1a8e:	88 87       	std	Y+8, r24	; 0x08
    1a90:	99 87       	std	Y+9, r25	; 0x09
    1a92:	29 9a       	sbi	0x05, 1	; 5
    1a94:	81 e0       	ldi	r24, 0x01	; 1
    1a96:	8a 8b       	std	Y+18, r24	; 0x12
    1a98:	a2 c0       	rjmp	.+324    	;  0x1bde
    1a9a:	ce 01       	movw	r24, r28
    1a9c:	02 96       	adiw	r24, 0x02	; 2
    1a9e:	60 e0       	ldi	r22, 0x00	; 0
    1aa0:	8b df       	rcall	.-234    	;  0x19b8
    1aa2:	88 23       	and	r24, r24
    1aa4:	09 f4       	brne	.+2      	;  0x1aa8
    1aa6:	9b c0       	rjmp	.+310    	;  0x1bde
    1aa8:	1a 99       	sbic	0x03, 2	; 3
    1aaa:	7f c0       	rjmp	.+254    	;  0x1baa
    1aac:	80 e5       	ldi	r24, 0x50	; 80
    1aae:	93 ec       	ldi	r25, 0xC3	; 195
    1ab0:	a0 e0       	ldi	r26, 0x00	; 0
    1ab2:	b0 e0       	ldi	r27, 0x00	; 0
    1ab4:	8a 87       	std	Y+10, r24	; 0x0a
    1ab6:	9b 87       	std	Y+11, r25	; 0x0b
    1ab8:	ac 87       	std	Y+12, r26	; 0x0c
    1aba:	bd 87       	std	Y+13, r27	; 0x0d
    1abc:	29 98       	cbi	0x05, 1	; 5
    1abe:	0e 94 e2 27 	call	0x4fc4	;  0x4fc4
    1ac2:	6e 83       	std	Y+6, r22	; 0x06
    1ac4:	7f 83       	std	Y+7, r23	; 0x07
    1ac6:	88 87       	std	Y+8, r24	; 0x08
    1ac8:	99 87       	std	Y+9, r25	; 0x09
    1aca:	82 e0       	ldi	r24, 0x02	; 2
    1acc:	e4 cf       	rjmp	.-56     	;  0x1a96
    1ace:	1a 9b       	sbis	0x03, 2	; 3
    1ad0:	02 c0       	rjmp	.+4      	;  0x1ad6
    1ad2:	83 e0       	ldi	r24, 0x03	; 3
    1ad4:	e0 cf       	rjmp	.-64     	;  0x1a96
    1ad6:	ce 01       	movw	r24, r28
    1ad8:	02 96       	adiw	r24, 0x02	; 2
    1ada:	60 e0       	ldi	r22, 0x00	; 0
    1adc:	6d df       	rcall	.-294    	;  0x19b8
    1ade:	88 23       	and	r24, r24
    1ae0:	09 f4       	brne	.+2      	;  0x1ae4
    1ae2:	7d c0       	rjmp	.+250    	;  0x1bde
    1ae4:	80 e5       	ldi	r24, 0x50	; 80
    1ae6:	93 ec       	ldi	r25, 0xC3	; 195
    1ae8:	a0 e0       	ldi	r26, 0x00	; 0
    1aea:	b0 e0       	ldi	r27, 0x00	; 0
    1aec:	8a 87       	std	Y+10, r24	; 0x0a
    1aee:	9b 87       	std	Y+11, r25	; 0x0b
    1af0:	ac 87       	std	Y+12, r26	; 0x0c
    1af2:	bd 87       	std	Y+13, r27	; 0x0d
    1af4:	0e 94 e2 27 	call	0x4fc4	;  0x4fc4
    1af8:	6e 83       	std	Y+6, r22	; 0x06
    1afa:	7f 83       	std	Y+7, r23	; 0x07
    1afc:	88 87       	std	Y+8, r24	; 0x08
    1afe:	99 87       	std	Y+9, r25	; 0x09
    1b00:	8f ef       	ldi	r24, 0xFF	; 255
    1b02:	9f ef       	ldi	r25, 0xFF	; 255
    1b04:	af ef       	ldi	r26, 0xFF	; 255
    1b06:	bf ef       	ldi	r27, 0xFF	; 255
    1b08:	8e 87       	std	Y+14, r24	; 0x0e
    1b0a:	9f 87       	std	Y+15, r25	; 0x0f
    1b0c:	a8 8b       	std	Y+16, r26	; 0x10
    1b0e:	b9 8b       	std	Y+17, r27	; 0x11
    1b10:	44 c0       	rjmp	.+136    	;  0x1b9a
    1b12:	83 b1       	in	r24, 0x03	; 3
    1b14:	86 95       	lsr	r24
    1b16:	86 95       	lsr	r24
    1b18:	80 fd       	sbrc	r24, 0
    1b1a:	2b c0       	rjmp	.+86     	;  0x1b72
    1b1c:	0e 94 e2 27 	call	0x4fc4	;  0x4fc4
    1b20:	9b 01       	movw	r18, r22
    1b22:	ac 01       	movw	r20, r24
    1b24:	8e 81       	ldd	r24, Y+6	; 0x06
    1b26:	9f 81       	ldd	r25, Y+7	; 0x07
    1b28:	a8 85       	ldd	r26, Y+8	; 0x08
    1b2a:	b9 85       	ldd	r27, Y+9	; 0x09
    1b2c:	28 17       	cp	r18, r24
    1b2e:	39 07       	cpc	r19, r25
    1b30:	4a 07       	cpc	r20, r26
    1b32:	5b 07       	cpc	r21, r27
    1b34:	68 f0       	brcs	.+26     	;  0x1b50
    1b36:	8e 81       	ldd	r24, Y+6	; 0x06
    1b38:	9f 81       	ldd	r25, Y+7	; 0x07
    1b3a:	a8 85       	ldd	r26, Y+8	; 0x08
    1b3c:	b9 85       	ldd	r27, Y+9	; 0x09
    1b3e:	79 01       	movw	r14, r18
    1b40:	8a 01       	movw	r16, r20
    1b42:	e8 1a       	sub	r14, r24
    1b44:	f9 0a       	sbc	r15, r25
    1b46:	0a 0b       	sbc	r16, r26
    1b48:	1b 0b       	sbc	r17, r27
    1b4a:	d8 01       	movw	r26, r16
    1b4c:	c7 01       	movw	r24, r14
    1b4e:	0c c0       	rjmp	.+24     	;  0x1b68
    1b50:	8e 81       	ldd	r24, Y+6	; 0x06
    1b52:	9f 81       	ldd	r25, Y+7	; 0x07
    1b54:	a8 85       	ldd	r26, Y+8	; 0x08
    1b56:	b9 85       	ldd	r27, Y+9	; 0x09
    1b58:	80 95       	com	r24
    1b5a:	90 95       	com	r25
    1b5c:	a0 95       	com	r26
    1b5e:	b0 95       	com	r27
    1b60:	82 0f       	add	r24, r18
    1b62:	93 1f       	adc	r25, r19
    1b64:	a4 1f       	adc	r26, r20
    1b66:	b5 1f       	adc	r27, r21
    1b68:	8e 87       	std	Y+14, r24	; 0x0e
    1b6a:	9f 87       	std	Y+15, r25	; 0x0f
    1b6c:	a8 8b       	std	Y+16, r26	; 0x10
    1b6e:	b9 8b       	std	Y+17, r27	; 0x11
    1b70:	23 c0       	rjmp	.+70     	;  0x1bb8
    1b72:	ce 01       	movw	r24, r28
    1b74:	02 96       	adiw	r24, 0x02	; 2
    1b76:	60 e0       	ldi	r22, 0x00	; 0
    1b78:	1f df       	rcall	.-450    	;  0x19b8
    1b7a:	88 23       	and	r24, r24
    1b7c:	81 f1       	breq	.+96     	;  0x1bde
    1b7e:	80 e5       	ldi	r24, 0x50	; 80
    1b80:	93 ec       	ldi	r25, 0xC3	; 195
    1b82:	a0 e0       	ldi	r26, 0x00	; 0
    1b84:	b0 e0       	ldi	r27, 0x00	; 0
    1b86:	8a 87       	std	Y+10, r24	; 0x0a
    1b88:	9b 87       	std	Y+11, r25	; 0x0b
    1b8a:	ac 87       	std	Y+12, r26	; 0x0c
    1b8c:	bd 87       	std	Y+13, r27	; 0x0d
    1b8e:	0e 94 e2 27 	call	0x4fc4	;  0x4fc4
    1b92:	6e 83       	std	Y+6, r22	; 0x06
    1b94:	7f 83       	std	Y+7, r23	; 0x07
    1b96:	88 87       	std	Y+8, r24	; 0x08
    1b98:	99 87       	std	Y+9, r25	; 0x09
    1b9a:	84 e0       	ldi	r24, 0x04	; 4
    1b9c:	7c cf       	rjmp	.-264    	;  0x1a96
    1b9e:	ce 01       	movw	r24, r28
    1ba0:	02 96       	adiw	r24, 0x02	; 2
    1ba2:	60 e0       	ldi	r22, 0x00	; 0
    1ba4:	09 df       	rcall	.-494    	;  0x19b8
    1ba6:	88 23       	and	r24, r24
    1ba8:	d1 f0       	breq	.+52     	;  0x1bde
    1baa:	85 e0       	ldi	r24, 0x05	; 5
    1bac:	74 cf       	rjmp	.-280    	;  0x1a96
    1bae:	83 b1       	in	r24, 0x03	; 3
    1bb0:	86 95       	lsr	r24
    1bb2:	86 95       	lsr	r24
    1bb4:	80 fd       	sbrc	r24, 0
    1bb6:	13 c0       	rjmp	.+38     	;  0x1bde
    1bb8:	1b 8a       	std	Y+19, r1	; 0x13
    1bba:	88 ee       	ldi	r24, 0xE8	; 232
    1bbc:	93 e0       	ldi	r25, 0x03	; 3
    1bbe:	a0 e0       	ldi	r26, 0x00	; 0
    1bc0:	b0 e0       	ldi	r27, 0x00	; 0
    1bc2:	8a 87       	std	Y+10, r24	; 0x0a
    1bc4:	9b 87       	std	Y+11, r25	; 0x0b
    1bc6:	ac 87       	std	Y+12, r26	; 0x0c
    1bc8:	bd 87       	std	Y+13, r27	; 0x0d
    1bca:	0e 94 e2 27 	call	0x4fc4	;  0x4fc4
    1bce:	6e 83       	std	Y+6, r22	; 0x06
    1bd0:	7f 83       	std	Y+7, r23	; 0x07
    1bd2:	88 87       	std	Y+8, r24	; 0x08
    1bd4:	99 87       	std	Y+9, r25	; 0x09
    1bd6:	02 c0       	rjmp	.+4      	;  0x1bdc
    1bd8:	8b 89       	ldd	r24, Y+19	; 0x13
    1bda:	81 11       	cpse	r24, r1
    1bdc:	1a 8a       	std	Y+18, r1	; 0x12
    1bde:	df 91       	pop	r29
    1be0:	cf 91       	pop	r28
    1be2:	1f 91       	pop	r17
    1be4:	0f 91       	pop	r16
    1be6:	ff 90       	pop	r15
    1be8:	ef 90       	pop	r14
    1bea:	08 95       	ret
    1bec:	fc 01       	movw	r30, r24
    1bee:	82 ed       	ldi	r24, 0xD2	; 210
    1bf0:	92 e0       	ldi	r25, 0x02	; 2
    1bf2:	91 83       	std	Z+1, r25	; 0x01
    1bf4:	80 83       	st	Z, r24
    1bf6:	cf 01       	movw	r24, r30
    1bf8:	0c 94 3e 1a 	jmp	0x347c	;  0x347c
    1bfc:	2f 92       	push	r2
    1bfe:	3f 92       	push	r3
    1c00:	4f 92       	push	r4
    1c02:	5f 92       	push	r5
    1c04:	6f 92       	push	r6
    1c06:	7f 92       	push	r7
    1c08:	8f 92       	push	r8
    1c0a:	9f 92       	push	r9
    1c0c:	af 92       	push	r10
    1c0e:	bf 92       	push	r11
    1c10:	cf 92       	push	r12
    1c12:	df 92       	push	r13
    1c14:	ef 92       	push	r14
    1c16:	ff 92       	push	r15
    1c18:	0f 93       	push	r16
    1c1a:	1f 93       	push	r17
    1c1c:	cf 93       	push	r28
    1c1e:	df 93       	push	r29
    1c20:	81 30       	cpi	r24, 0x01	; 1
    1c22:	91 05       	cpc	r25, r1
    1c24:	09 f0       	breq	.+2      	;  0x1c28
    1c26:	85 c4       	rjmp	.+2314   	;  0x2532
    1c28:	6f 5f       	subi	r22, 0xFF	; 255
    1c2a:	7f 4f       	sbci	r23, 0xFF	; 255
    1c2c:	09 f0       	breq	.+2      	;  0x1c30
    1c2e:	8c c4       	rjmp	.+2328   	;  0x2548
    1c30:	10 92 25 03 	sts	0x0325, r1
    1c34:	10 92 24 03 	sts	0x0324, r1
    1c38:	10 92 27 03 	sts	0x0327, r1
    1c3c:	10 92 26 03 	sts	0x0326, r1
    1c40:	10 92 29 03 	sts	0x0329, r1
    1c44:	10 92 28 03 	sts	0x0328, r1
    1c48:	10 92 2b 03 	sts	0x032B, r1
    1c4c:	10 92 2a 03 	sts	0x032A, r1
    1c50:	10 92 2d 03 	sts	0x032D, r1
    1c54:	10 92 2c 03 	sts	0x032C, r1
    1c58:	10 92 2f 03 	sts	0x032F, r1
    1c5c:	10 92 2e 03 	sts	0x032E, r1
    1c60:	40 e0       	ldi	r20, 0x00	; 0
    1c62:	50 e0       	ldi	r21, 0x00	; 0
    1c64:	60 e0       	ldi	r22, 0x00	; 0
    1c66:	70 e0       	ldi	r23, 0x00	; 0
    1c68:	ea e6       	ldi	r30, 0x6A	; 106
    1c6a:	f3 e0       	ldi	r31, 0x03	; 3
    1c6c:	20 ee       	ldi	r18, 0xE0	; 224
    1c6e:	32 e0       	ldi	r19, 0x02	; 2
    1c70:	30 93 6b 03 	sts	0x036B, r19
    1c74:	20 93 6a 03 	sts	0x036A, r18
    1c78:	30 93 7d 03 	sts	0x037D, r19
    1c7c:	20 93 7c 03 	sts	0x037C, r18
    1c80:	8f 01       	movw	r16, r30
    1c82:	0c 5d       	subi	r16, 0xDC	; 220
    1c84:	1f 4f       	sbci	r17, 0xFF	; 255
    1c86:	86 ee       	ldi	r24, 0xE6	; 230
    1c88:	92 e0       	ldi	r25, 0x02	; 2
    1c8a:	90 93 8f 03 	sts	0x038F, r25
    1c8e:	80 93 8e 03 	sts	0x038E, r24
    1c92:	a6 e3       	ldi	r26, 0x36	; 54
    1c94:	ea 2e       	mov	r14, r26
    1c96:	f1 2c       	mov	r15, r1
    1c98:	ee 0e       	add	r14, r30
    1c9a:	ff 1e       	adc	r15, r31
    1c9c:	90 93 a1 03 	sts	0x03A1, r25
    1ca0:	80 93 a0 03 	sts	0x03A0, r24
    1ca4:	30 93 b3 03 	sts	0x03B3, r19
    1ca8:	20 93 b2 03 	sts	0x03B2, r18
    1cac:	30 93 c5 03 	sts	0x03C5, r19
    1cb0:	20 93 c4 03 	sts	0x03C4, r18
    1cb4:	30 93 d7 03 	sts	0x03D7, r19
    1cb8:	20 93 d6 03 	sts	0x03D6, r18
    1cbc:	30 93 e9 03 	sts	0x03E9, r19
    1cc0:	20 93 e8 03 	sts	0x03E8, r18
    1cc4:	90 93 fb 03 	sts	0x03FB, r25
    1cc8:	80 93 fa 03 	sts	0x03FA, r24
    1ccc:	90 93 0d 04 	sts	0x040D, r25
    1cd0:	80 93 0c 04 	sts	0x040C, r24
    1cd4:	90 93 1f 04 	sts	0x041F, r25
    1cd8:	80 93 1e 04 	sts	0x041E, r24
    1cdc:	30 93 31 04 	sts	0x0431, r19
    1ce0:	20 93 30 04 	sts	0x0430, r18
    1ce4:	90 93 43 04 	sts	0x0443, r25
    1ce8:	80 93 42 04 	sts	0x0442, r24
    1cec:	90 93 55 04 	sts	0x0455, r25
    1cf0:	80 93 54 04 	sts	0x0454, r24
    1cf4:	30 93 67 04 	sts	0x0467, r19
    1cf8:	20 93 66 04 	sts	0x0466, r18
    1cfc:	90 93 79 04 	sts	0x0479, r25
    1d00:	80 93 78 04 	sts	0x0478, r24
    1d04:	8c ee       	ldi	r24, 0xEC	; 236
    1d06:	92 e0       	ldi	r25, 0x02	; 2
    1d08:	90 93 8b 04 	sts	0x048B, r25
    1d0c:	80 93 8a 04 	sts	0x048A, r24
    1d10:	40 93 30 03 	sts	0x0330, r20
    1d14:	50 93 31 03 	sts	0x0331, r21
    1d18:	60 93 32 03 	sts	0x0332, r22
    1d1c:	70 93 33 03 	sts	0x0333, r23
    1d20:	40 93 34 03 	sts	0x0334, r20
    1d24:	50 93 35 03 	sts	0x0335, r21
    1d28:	60 93 36 03 	sts	0x0336, r22
    1d2c:	70 93 37 03 	sts	0x0337, r23
    1d30:	80 e0       	ldi	r24, 0x00	; 0
    1d32:	90 e0       	ldi	r25, 0x00	; 0
    1d34:	a6 e3       	ldi	r26, 0x36	; 54
    1d36:	b3 e4       	ldi	r27, 0x43	; 67
    1d38:	80 93 38 03 	sts	0x0338, r24
    1d3c:	90 93 39 03 	sts	0x0339, r25
    1d40:	a0 93 3a 03 	sts	0x033A, r26
    1d44:	b0 93 3b 03 	sts	0x033B, r27
    1d48:	0f 2e       	mov	r0, r31
    1d4a:	f0 e0       	ldi	r31, 0x00	; 0
    1d4c:	2f 2e       	mov	r2, r31
    1d4e:	f0 e0       	ldi	r31, 0x00	; 0
    1d50:	3f 2e       	mov	r3, r31
    1d52:	f4 e7       	ldi	r31, 0x74	; 116
    1d54:	4f 2e       	mov	r4, r31
    1d56:	f3 e4       	ldi	r31, 0x43	; 67
    1d58:	5f 2e       	mov	r5, r31
    1d5a:	f0 2d       	mov	r31, r0
    1d5c:	20 92 3c 03 	sts	0x033C, r2
    1d60:	30 92 3d 03 	sts	0x033D, r3
    1d64:	40 92 3e 03 	sts	0x033E, r4
    1d68:	50 92 3f 03 	sts	0x033F, r5
    1d6c:	80 93 40 03 	sts	0x0340, r24
    1d70:	90 93 41 03 	sts	0x0341, r25
    1d74:	a0 93 42 03 	sts	0x0342, r26
    1d78:	b0 93 43 03 	sts	0x0343, r27
    1d7c:	20 92 44 03 	sts	0x0344, r2
    1d80:	30 92 45 03 	sts	0x0345, r3
    1d84:	40 92 46 03 	sts	0x0346, r4
    1d88:	50 92 47 03 	sts	0x0347, r5
    1d8c:	40 93 6c 03 	sts	0x036C, r20
    1d90:	50 93 6d 03 	sts	0x036D, r21
    1d94:	60 93 6e 03 	sts	0x036E, r22
    1d98:	70 93 6f 03 	sts	0x036F, r23
    1d9c:	40 93 70 03 	sts	0x0370, r20
    1da0:	50 93 71 03 	sts	0x0371, r21
    1da4:	60 93 72 03 	sts	0x0372, r22
    1da8:	70 93 73 03 	sts	0x0373, r23
    1dac:	80 93 74 03 	sts	0x0374, r24
    1db0:	90 93 75 03 	sts	0x0375, r25
    1db4:	a0 93 76 03 	sts	0x0376, r26
    1db8:	b0 93 77 03 	sts	0x0377, r27
    1dbc:	40 93 78 03 	sts	0x0378, r20
    1dc0:	50 93 79 03 	sts	0x0379, r21
    1dc4:	60 93 7a 03 	sts	0x037A, r22
    1dc8:	70 93 7b 03 	sts	0x037B, r23
    1dcc:	f0 93 49 03 	sts	0x0349, r31
    1dd0:	e0 93 48 03 	sts	0x0348, r30
    1dd4:	40 93 7e 03 	sts	0x037E, r20
    1dd8:	50 93 7f 03 	sts	0x037F, r21
    1ddc:	60 93 80 03 	sts	0x0380, r22
    1de0:	70 93 81 03 	sts	0x0381, r23
    1de4:	20 92 82 03 	sts	0x0382, r2
    1de8:	30 92 83 03 	sts	0x0383, r3
    1dec:	40 92 84 03 	sts	0x0384, r4
    1df0:	50 92 85 03 	sts	0x0385, r5
    1df4:	80 93 86 03 	sts	0x0386, r24
    1df8:	90 93 87 03 	sts	0x0387, r25
    1dfc:	a0 93 88 03 	sts	0x0388, r26
    1e00:	b0 93 89 03 	sts	0x0389, r27
    1e04:	20 92 8a 03 	sts	0x038A, r2
    1e08:	30 92 8b 03 	sts	0x038B, r3
    1e0c:	40 92 8c 03 	sts	0x038C, r4
    1e10:	50 92 8d 03 	sts	0x038D, r5
    1e14:	72 96       	adiw	r30, 0x12	; 18
    1e16:	f0 93 4b 03 	sts	0x034B, r31
    1e1a:	e0 93 4a 03 	sts	0x034A, r30
    1e1e:	40 93 90 03 	sts	0x0390, r20
    1e22:	50 93 91 03 	sts	0x0391, r21
    1e26:	60 93 92 03 	sts	0x0392, r22
    1e2a:	70 93 93 03 	sts	0x0393, r23
    1e2e:	40 93 94 03 	sts	0x0394, r20
    1e32:	50 93 95 03 	sts	0x0395, r21
    1e36:	60 93 96 03 	sts	0x0396, r22
    1e3a:	70 93 97 03 	sts	0x0397, r23
    1e3e:	40 93 98 03 	sts	0x0398, r20
    1e42:	50 93 99 03 	sts	0x0399, r21
    1e46:	60 93 9a 03 	sts	0x039A, r22
    1e4a:	70 93 9b 03 	sts	0x039B, r23
    1e4e:	20 92 9c 03 	sts	0x039C, r2
    1e52:	30 92 9d 03 	sts	0x039D, r3
    1e56:	40 92 9e 03 	sts	0x039E, r4
    1e5a:	50 92 9f 03 	sts	0x039F, r5
    1e5e:	10 93 4d 03 	sts	0x034D, r17
    1e62:	00 93 4c 03 	sts	0x034C, r16
    1e66:	80 93 a2 03 	sts	0x03A2, r24
    1e6a:	90 93 a3 03 	sts	0x03A3, r25
    1e6e:	a0 93 a4 03 	sts	0x03A4, r26
    1e72:	b0 93 a5 03 	sts	0x03A5, r27
    1e76:	40 93 a6 03 	sts	0x03A6, r20
    1e7a:	50 93 a7 03 	sts	0x03A7, r21
    1e7e:	60 93 a8 03 	sts	0x03A8, r22
    1e82:	70 93 a9 03 	sts	0x03A9, r23
    1e86:	80 93 aa 03 	sts	0x03AA, r24
    1e8a:	90 93 ab 03 	sts	0x03AB, r25
    1e8e:	a0 93 ac 03 	sts	0x03AC, r26
    1e92:	b0 93 ad 03 	sts	0x03AD, r27
    1e96:	20 92 ae 03 	sts	0x03AE, r2
    1e9a:	30 92 af 03 	sts	0x03AF, r3
    1e9e:	40 92 b0 03 	sts	0x03B0, r4
    1ea2:	50 92 b1 03 	sts	0x03B1, r5
    1ea6:	f0 92 4f 03 	sts	0x034F, r15
    1eaa:	e0 92 4e 03 	sts	0x034E, r14
    1eae:	0f 2e       	mov	r0, r31
    1eb0:	f0 e0       	ldi	r31, 0x00	; 0
    1eb2:	ef 2e       	mov	r14, r31
    1eb4:	f0 e0       	ldi	r31, 0x00	; 0
    1eb6:	ff 2e       	mov	r15, r31
    1eb8:	f4 e7       	ldi	r31, 0x74	; 116
    1eba:	0f 2f       	mov	r16, r31
    1ebc:	f2 e4       	ldi	r31, 0x42	; 66
    1ebe:	1f 2f       	mov	r17, r31
    1ec0:	f0 2d       	mov	r31, r0
    1ec2:	e0 92 b4 03 	sts	0x03B4, r14
    1ec6:	f0 92 b5 03 	sts	0x03B5, r15
    1eca:	00 93 b6 03 	sts	0x03B6, r16
    1ece:	10 93 b7 03 	sts	0x03B7, r17
    1ed2:	0f 2e       	mov	r0, r31
    1ed4:	f0 e0       	ldi	r31, 0x00	; 0
    1ed6:	af 2e       	mov	r10, r31
    1ed8:	f0 e0       	ldi	r31, 0x00	; 0
    1eda:	bf 2e       	mov	r11, r31
    1edc:	f0 ef       	ldi	r31, 0xF0	; 240
    1ede:	cf 2e       	mov	r12, r31
    1ee0:	f1 e4       	ldi	r31, 0x41	; 65
    1ee2:	df 2e       	mov	r13, r31
    1ee4:	f0 2d       	mov	r31, r0
    1ee6:	a0 92 b8 03 	sts	0x03B8, r10
    1eea:	b0 92 b9 03 	sts	0x03B9, r11
    1eee:	c0 92 ba 03 	sts	0x03BA, r12
    1ef2:	d0 92 bb 03 	sts	0x03BB, r13
    1ef6:	20 e0       	ldi	r18, 0x00	; 0
    1ef8:	30 e0       	ldi	r19, 0x00	; 0
    1efa:	42 ef       	ldi	r20, 0xF2	; 242
    1efc:	52 e4       	ldi	r21, 0x42	; 66
    1efe:	20 93 bc 03 	sts	0x03BC, r18
    1f02:	30 93 bd 03 	sts	0x03BD, r19
    1f06:	40 93 be 03 	sts	0x03BE, r20
    1f0a:	50 93 bf 03 	sts	0x03BF, r21
    1f0e:	a0 92 c0 03 	sts	0x03C0, r10
    1f12:	b0 92 c1 03 	sts	0x03C1, r11
    1f16:	c0 92 c2 03 	sts	0x03C2, r12
    1f1a:	d0 92 c3 03 	sts	0x03C3, r13
    1f1e:	82 eb       	ldi	r24, 0xB2	; 178
    1f20:	93 e0       	ldi	r25, 0x03	; 3
    1f22:	90 93 51 03 	sts	0x0351, r25
    1f26:	80 93 50 03 	sts	0x0350, r24
    1f2a:	e0 92 c6 03 	sts	0x03C6, r14
    1f2e:	f0 92 c7 03 	sts	0x03C7, r15
    1f32:	00 93 c8 03 	sts	0x03C8, r16
    1f36:	10 93 c9 03 	sts	0x03C9, r17
    1f3a:	0f 2e       	mov	r0, r31
    1f3c:	f0 e0       	ldi	r31, 0x00	; 0
    1f3e:	ef 2e       	mov	r14, r31
    1f40:	f0 e0       	ldi	r31, 0x00	; 0
    1f42:	ff 2e       	mov	r15, r31
    1f44:	f6 e5       	ldi	r31, 0x56	; 86
    1f46:	0f 2f       	mov	r16, r31
    1f48:	f3 e4       	ldi	r31, 0x43	; 67
    1f4a:	1f 2f       	mov	r17, r31
    1f4c:	f0 2d       	mov	r31, r0
    1f4e:	e0 92 ca 03 	sts	0x03CA, r14
    1f52:	f0 92 cb 03 	sts	0x03CB, r15
    1f56:	00 93 cc 03 	sts	0x03CC, r16
    1f5a:	10 93 cd 03 	sts	0x03CD, r17
    1f5e:	20 93 ce 03 	sts	0x03CE, r18
    1f62:	30 93 cf 03 	sts	0x03CF, r19
    1f66:	40 93 d0 03 	sts	0x03D0, r20
    1f6a:	50 93 d1 03 	sts	0x03D1, r21
    1f6e:	e0 92 d2 03 	sts	0x03D2, r14
    1f72:	f0 92 d3 03 	sts	0x03D3, r15
    1f76:	00 93 d4 03 	sts	0x03D4, r16
    1f7a:	10 93 d5 03 	sts	0x03D5, r17
    1f7e:	84 ec       	ldi	r24, 0xC4	; 196
    1f80:	93 e0       	ldi	r25, 0x03	; 3
    1f82:	90 93 53 03 	sts	0x0353, r25
    1f86:	80 93 52 03 	sts	0x0352, r24
    1f8a:	a0 92 d8 03 	sts	0x03D8, r10
    1f8e:	b0 92 d9 03 	sts	0x03D9, r11
    1f92:	c0 92 da 03 	sts	0x03DA, r12
    1f96:	d0 92 db 03 	sts	0x03DB, r13
    1f9a:	a0 92 dc 03 	sts	0x03DC, r10
    1f9e:	b0 92 dd 03 	sts	0x03DD, r11
    1fa2:	c0 92 de 03 	sts	0x03DE, r12
    1fa6:	d0 92 df 03 	sts	0x03DF, r13
    1faa:	20 e0       	ldi	r18, 0x00	; 0
    1fac:	30 e0       	ldi	r19, 0x00	; 0
    1fae:	48 e1       	ldi	r20, 0x18	; 24
    1fb0:	53 e4       	ldi	r21, 0x43	; 67
    1fb2:	20 93 e0 03 	sts	0x03E0, r18
    1fb6:	30 93 e1 03 	sts	0x03E1, r19
    1fba:	40 93 e2 03 	sts	0x03E2, r20
    1fbe:	50 93 e3 03 	sts	0x03E3, r21
    1fc2:	a0 92 e4 03 	sts	0x03E4, r10
    1fc6:	b0 92 e5 03 	sts	0x03E5, r11
    1fca:	c0 92 e6 03 	sts	0x03E6, r12
    1fce:	d0 92 e7 03 	sts	0x03E7, r13
    1fd2:	86 ed       	ldi	r24, 0xD6	; 214
    1fd4:	93 e0       	ldi	r25, 0x03	; 3
    1fd6:	90 93 55 03 	sts	0x0355, r25
    1fda:	80 93 54 03 	sts	0x0354, r24
    1fde:	a0 92 ea 03 	sts	0x03EA, r10
    1fe2:	b0 92 eb 03 	sts	0x03EB, r11
    1fe6:	c0 92 ec 03 	sts	0x03EC, r12
    1fea:	d0 92 ed 03 	sts	0x03ED, r13
    1fee:	e0 92 ee 03 	sts	0x03EE, r14
    1ff2:	f0 92 ef 03 	sts	0x03EF, r15
    1ff6:	00 93 f0 03 	sts	0x03F0, r16
    1ffa:	10 93 f1 03 	sts	0x03F1, r17
    1ffe:	20 93 f2 03 	sts	0x03F2, r18
    2002:	30 93 f3 03 	sts	0x03F3, r19
    2006:	40 93 f4 03 	sts	0x03F4, r20
    200a:	50 93 f5 03 	sts	0x03F5, r21
    200e:	e0 92 f6 03 	sts	0x03F6, r14
    2012:	f0 92 f7 03 	sts	0x03F7, r15
    2016:	00 93 f8 03 	sts	0x03F8, r16
    201a:	10 93 f9 03 	sts	0x03F9, r17
    201e:	88 ee       	ldi	r24, 0xE8	; 232
    2020:	93 e0       	ldi	r25, 0x03	; 3
    2022:	90 93 57 03 	sts	0x0357, r25
    2026:	80 93 56 03 	sts	0x0356, r24
    202a:	a0 92 fc 03 	sts	0x03FC, r10
    202e:	b0 92 fd 03 	sts	0x03FD, r11
    2032:	c0 92 fe 03 	sts	0x03FE, r12
    2036:	d0 92 ff 03 	sts	0x03FF, r13
    203a:	a0 92 00 04 	sts	0x0400, r10
    203e:	b0 92 01 04 	sts	0x0401, r11
    2042:	c0 92 02 04 	sts	0x0402, r12
    2046:	d0 92 03 04 	sts	0x0403, r13
    204a:	a0 92 04 04 	sts	0x0404, r10
    204e:	b0 92 05 04 	sts	0x0405, r11
    2052:	c0 92 06 04 	sts	0x0406, r12
    2056:	d0 92 07 04 	sts	0x0407, r13
    205a:	e0 92 08 04 	sts	0x0408, r14
    205e:	f0 92 09 04 	sts	0x0409, r15
    2062:	00 93 0a 04 	sts	0x040A, r16
    2066:	10 93 0b 04 	sts	0x040B, r17
    206a:	8a ef       	ldi	r24, 0xFA	; 250
    206c:	93 e0       	ldi	r25, 0x03	; 3
    206e:	90 93 59 03 	sts	0x0359, r25
    2072:	80 93 58 03 	sts	0x0358, r24
    2076:	20 93 0e 04 	sts	0x040E, r18
    207a:	30 93 0f 04 	sts	0x040F, r19
    207e:	40 93 10 04 	sts	0x0410, r20
    2082:	50 93 11 04 	sts	0x0411, r21
    2086:	a0 92 12 04 	sts	0x0412, r10
    208a:	b0 92 13 04 	sts	0x0413, r11
    208e:	c0 92 14 04 	sts	0x0414, r12
    2092:	d0 92 15 04 	sts	0x0415, r13
    2096:	20 93 16 04 	sts	0x0416, r18
    209a:	30 93 17 04 	sts	0x0417, r19
    209e:	40 93 18 04 	sts	0x0418, r20
    20a2:	50 93 19 04 	sts	0x0419, r21
    20a6:	e0 92 1a 04 	sts	0x041A, r14
    20aa:	f0 92 1b 04 	sts	0x041B, r15
    20ae:	00 93 1c 04 	sts	0x041C, r16
    20b2:	10 93 1d 04 	sts	0x041D, r17
    20b6:	8c e0       	ldi	r24, 0x0C	; 12
    20b8:	94 e0       	ldi	r25, 0x04	; 4
    20ba:	90 93 5b 03 	sts	0x035B, r25
    20be:	80 93 5a 03 	sts	0x035A, r24
    20c2:	0f 2e       	mov	r0, r31
    20c4:	f0 e0       	ldi	r31, 0x00	; 0
    20c6:	6f 2e       	mov	r6, r31
    20c8:	f0 e0       	ldi	r31, 0x00	; 0
    20ca:	7f 2e       	mov	r7, r31
    20cc:	f8 e3       	ldi	r31, 0x38	; 56
    20ce:	8f 2e       	mov	r8, r31
    20d0:	f2 e4       	ldi	r31, 0x42	; 66
    20d2:	9f 2e       	mov	r9, r31
    20d4:	f0 2d       	mov	r31, r0
    20d6:	60 92 20 04 	sts	0x0420, r6
    20da:	70 92 21 04 	sts	0x0421, r7
    20de:	80 92 22 04 	sts	0x0422, r8
    20e2:	90 92 23 04 	sts	0x0423, r9
    20e6:	a0 92 24 04 	sts	0x0424, r10
    20ea:	b0 92 25 04 	sts	0x0425, r11
    20ee:	c0 92 26 04 	sts	0x0426, r12
    20f2:	d0 92 27 04 	sts	0x0427, r13
    20f6:	60 92 28 04 	sts	0x0428, r6
    20fa:	70 92 29 04 	sts	0x0429, r7
    20fe:	80 92 2a 04 	sts	0x042A, r8
    2102:	90 92 2b 04 	sts	0x042B, r9
    2106:	20 e0       	ldi	r18, 0x00	; 0
    2108:	30 e0       	ldi	r19, 0x00	; 0
    210a:	40 e7       	ldi	r20, 0x70	; 112
    210c:	52 e4       	ldi	r21, 0x42	; 66
    210e:	20 93 2c 04 	sts	0x042C, r18
    2112:	30 93 2d 04 	sts	0x042D, r19
    2116:	40 93 2e 04 	sts	0x042E, r20
    211a:	50 93 2f 04 	sts	0x042F, r21
    211e:	8e e1       	ldi	r24, 0x1E	; 30
    2120:	94 e0       	ldi	r25, 0x04	; 4
    2122:	90 93 5d 03 	sts	0x035D, r25
    2126:	80 93 5c 03 	sts	0x035C, r24
    212a:	60 92 32 04 	sts	0x0432, r6
    212e:	70 92 33 04 	sts	0x0433, r7
    2132:	80 92 34 04 	sts	0x0434, r8
    2136:	90 92 35 04 	sts	0x0435, r9
    213a:	20 93 36 04 	sts	0x0436, r18
    213e:	30 93 37 04 	sts	0x0437, r19
    2142:	40 93 38 04 	sts	0x0438, r20
    2146:	50 93 39 04 	sts	0x0439, r21
    214a:	0f 2e       	mov	r0, r31
    214c:	f0 e0       	ldi	r31, 0x00	; 0
    214e:	ef 2e       	mov	r14, r31
    2150:	f0 e0       	ldi	r31, 0x00	; 0
    2152:	ff 2e       	mov	r15, r31
    2154:	f8 e0       	ldi	r31, 0x08	; 8
    2156:	0f 2f       	mov	r16, r31
    2158:	f3 e4       	ldi	r31, 0x43	; 67
    215a:	1f 2f       	mov	r17, r31
    215c:	f0 2d       	mov	r31, r0
    215e:	e0 92 3a 04 	sts	0x043A, r14
    2162:	f0 92 3b 04 	sts	0x043B, r15
    2166:	00 93 3c 04 	sts	0x043C, r16
    216a:	10 93 3d 04 	sts	0x043D, r17
    216e:	20 93 3e 04 	sts	0x043E, r18
    2172:	30 93 3f 04 	sts	0x043F, r19
    2176:	40 93 40 04 	sts	0x0440, r20
    217a:	50 93 41 04 	sts	0x0441, r21
    217e:	80 e3       	ldi	r24, 0x30	; 48
    2180:	94 e0       	ldi	r25, 0x04	; 4
    2182:	90 93 5f 03 	sts	0x035F, r25
    2186:	80 93 5e 03 	sts	0x035E, r24
    218a:	e0 92 44 04 	sts	0x0444, r14
    218e:	f0 92 45 04 	sts	0x0445, r15
    2192:	00 93 46 04 	sts	0x0446, r16
    2196:	10 93 47 04 	sts	0x0447, r17
    219a:	a0 92 48 04 	sts	0x0448, r10
    219e:	b0 92 49 04 	sts	0x0449, r11
    21a2:	c0 92 4a 04 	sts	0x044A, r12
    21a6:	d0 92 4b 04 	sts	0x044B, r13
    21aa:	e0 92 4c 04 	sts	0x044C, r14
    21ae:	f0 92 4d 04 	sts	0x044D, r15
    21b2:	00 93 4e 04 	sts	0x044E, r16
    21b6:	10 93 4f 04 	sts	0x044F, r17
    21ba:	20 93 50 04 	sts	0x0450, r18
    21be:	30 93 51 04 	sts	0x0451, r19
    21c2:	40 93 52 04 	sts	0x0452, r20
    21c6:	50 93 53 04 	sts	0x0453, r21
    21ca:	82 e4       	ldi	r24, 0x42	; 66
    21cc:	94 e0       	ldi	r25, 0x04	; 4
    21ce:	90 93 61 03 	sts	0x0361, r25
    21d2:	80 93 60 03 	sts	0x0360, r24
    21d6:	60 92 56 04 	sts	0x0456, r6
    21da:	70 92 57 04 	sts	0x0457, r7
    21de:	80 92 58 04 	sts	0x0458, r8
    21e2:	90 92 59 04 	sts	0x0459, r9
    21e6:	20 e0       	ldi	r18, 0x00	; 0
    21e8:	30 e0       	ldi	r19, 0x00	; 0
    21ea:	48 e3       	ldi	r20, 0x38	; 56
    21ec:	53 e4       	ldi	r21, 0x43	; 67
    21ee:	20 93 5a 04 	sts	0x045A, r18
    21f2:	30 93 5b 04 	sts	0x045B, r19
    21f6:	40 93 5c 04 	sts	0x045C, r20
    21fa:	50 93 5d 04 	sts	0x045D, r21
    21fe:	60 92 5e 04 	sts	0x045E, r6
    2202:	70 92 5f 04 	sts	0x045F, r7
    2206:	80 92 60 04 	sts	0x0460, r8
    220a:	90 92 61 04 	sts	0x0461, r9
    220e:	20 92 62 04 	sts	0x0462, r2
    2212:	30 92 63 04 	sts	0x0463, r3
    2216:	40 92 64 04 	sts	0x0464, r4
    221a:	50 92 65 04 	sts	0x0465, r5
    221e:	84 e5       	ldi	r24, 0x54	; 84
    2220:	94 e0       	ldi	r25, 0x04	; 4
    2222:	90 93 63 03 	sts	0x0363, r25
    2226:	80 93 62 03 	sts	0x0362, r24
    222a:	60 92 68 04 	sts	0x0468, r6
    222e:	70 92 69 04 	sts	0x0469, r7
    2232:	80 92 6a 04 	sts	0x046A, r8
    2236:	90 92 6b 04 	sts	0x046B, r9
    223a:	20 93 6c 04 	sts	0x046C, r18
    223e:	30 93 6d 04 	sts	0x046D, r19
    2242:	40 93 6e 04 	sts	0x046E, r20
    2246:	50 93 6f 04 	sts	0x046F, r21
    224a:	e0 92 70 04 	sts	0x0470, r14
    224e:	f0 92 71 04 	sts	0x0471, r15
    2252:	00 93 72 04 	sts	0x0472, r16
    2256:	10 93 73 04 	sts	0x0473, r17
    225a:	20 93 74 04 	sts	0x0474, r18
    225e:	30 93 75 04 	sts	0x0475, r19
    2262:	40 93 76 04 	sts	0x0476, r20
    2266:	50 93 77 04 	sts	0x0477, r21
    226a:	86 e6       	ldi	r24, 0x66	; 102
    226c:	94 e0       	ldi	r25, 0x04	; 4
    226e:	90 93 65 03 	sts	0x0365, r25
    2272:	80 93 64 03 	sts	0x0364, r24
    2276:	e0 92 7a 04 	sts	0x047A, r14
    227a:	f0 92 7b 04 	sts	0x047B, r15
    227e:	00 93 7c 04 	sts	0x047C, r16
    2282:	10 93 7d 04 	sts	0x047D, r17
    2286:	20 93 7e 04 	sts	0x047E, r18
    228a:	30 93 7f 04 	sts	0x047F, r19
    228e:	40 93 80 04 	sts	0x0480, r20
    2292:	50 93 81 04 	sts	0x0481, r21
    2296:	e0 92 82 04 	sts	0x0482, r14
    229a:	f0 92 83 04 	sts	0x0483, r15
    229e:	00 93 84 04 	sts	0x0484, r16
    22a2:	10 93 85 04 	sts	0x0485, r17
    22a6:	20 92 86 04 	sts	0x0486, r2
    22aa:	30 92 87 04 	sts	0x0487, r3
    22ae:	40 92 88 04 	sts	0x0488, r4
    22b2:	50 92 89 04 	sts	0x0489, r5
    22b6:	88 e7       	ldi	r24, 0x78	; 120
    22b8:	94 e0       	ldi	r25, 0x04	; 4
    22ba:	90 93 67 03 	sts	0x0367, r25
    22be:	80 93 66 03 	sts	0x0366, r24
    22c2:	80 e0       	ldi	r24, 0x00	; 0
    22c4:	90 e0       	ldi	r25, 0x00	; 0
    22c6:	a6 eb       	ldi	r26, 0xB6	; 182
    22c8:	b2 e4       	ldi	r27, 0x42	; 66
    22ca:	80 93 8c 04 	sts	0x048C, r24
    22ce:	90 93 8d 04 	sts	0x048D, r25
    22d2:	a0 93 8e 04 	sts	0x048E, r26
    22d6:	b0 93 8f 04 	sts	0x048F, r27
    22da:	80 e0       	ldi	r24, 0x00	; 0
    22dc:	90 e0       	ldi	r25, 0x00	; 0
    22de:	a4 ef       	ldi	r26, 0xF4	; 244
    22e0:	b2 e4       	ldi	r27, 0x42	; 66
    22e2:	80 93 90 04 	sts	0x0490, r24
    22e6:	90 93 91 04 	sts	0x0491, r25
    22ea:	a0 93 92 04 	sts	0x0492, r26
    22ee:	b0 93 93 04 	sts	0x0493, r27
    22f2:	a0 92 94 04 	sts	0x0494, r10
    22f6:	b0 92 95 04 	sts	0x0495, r11
    22fa:	c0 92 96 04 	sts	0x0496, r12
    22fe:	d0 92 97 04 	sts	0x0497, r13
    2302:	a0 92 98 04 	sts	0x0498, r10
    2306:	b0 92 99 04 	sts	0x0499, r11
    230a:	c0 92 9a 04 	sts	0x049A, r12
    230e:	d0 92 9b 04 	sts	0x049B, r13
    2312:	8a e8       	ldi	r24, 0x8A	; 138
    2314:	94 e0       	ldi	r25, 0x04	; 4
    2316:	90 93 69 03 	sts	0x0369, r25
    231a:	80 93 68 03 	sts	0x0368, r24
    231e:	cc e9       	ldi	r28, 0x9C	; 156
    2320:	d4 e0       	ldi	r29, 0x04	; 4
    2322:	ce 01       	movw	r24, r28
    2324:	0e 94 2d 05 	call	0xa5a	;  0xa5a
    2328:	25 96       	adiw	r28, 0x05	; 5
    232a:	84 e0       	ldi	r24, 0x04	; 4
    232c:	ce 3c       	cpi	r28, 0xCE	; 206
    232e:	d8 07       	cpc	r29, r24
    2330:	c1 f7       	brne	.-16     	;  0x2322
    2332:	ce 01       	movw	r24, r28
    2334:	0e 94 2d 05 	call	0xa5a	;  0xa5a
    2338:	25 96       	adiw	r28, 0x05	; 5
    233a:	85 e0       	ldi	r24, 0x05	; 5
    233c:	c0 30       	cpi	r28, 0x00	; 0
    233e:	d8 07       	cpc	r29, r24
    2340:	c1 f7       	brne	.-16     	;  0x2332
    2342:	80 e0       	ldi	r24, 0x00	; 0
    2344:	90 e0       	ldi	r25, 0x00	; 0
    2346:	a0 e0       	ldi	r26, 0x00	; 0
    2348:	b0 e0       	ldi	r27, 0x00	; 0
    234a:	8a 8b       	std	Y+18, r24	; 0x12
    234c:	9b 8b       	std	Y+19, r25	; 0x13
    234e:	ac 8b       	std	Y+20, r26	; 0x14
    2350:	bd 8b       	std	Y+21, r27	; 0x15
    2352:	8e 8b       	std	Y+22, r24	; 0x16
    2354:	9f 8b       	std	Y+23, r25	; 0x17
    2356:	a8 8f       	std	Y+24, r26	; 0x18
    2358:	b9 8f       	std	Y+25, r27	; 0x19
    235a:	0e 94 0b 01 	call	0x216	;  0x216
    235e:	0e 94 be 19 	call	0x337c	;  0x337c
    2362:	80 e3       	ldi	r24, 0x30	; 48
    2364:	93 e0       	ldi	r25, 0x03	; 3
    2366:	99 87       	std	Y+9, r25	; 0x09
    2368:	88 87       	std	Y+8, r24	; 0x08
    236a:	c0 e0       	ldi	r28, 0x00	; 0
    236c:	d0 e0       	ldi	r29, 0x00	; 0
    236e:	ce 01       	movw	r24, r28
    2370:	88 0f       	add	r24, r24
    2372:	99 1f       	adc	r25, r25
    2374:	88 0f       	add	r24, r24
    2376:	99 1f       	adc	r25, r25
    2378:	8c 0f       	add	r24, r28
    237a:	9d 1f       	adc	r25, r29
    237c:	60 91 08 05 	lds	r22, 0x0508
    2380:	70 91 09 05 	lds	r23, 0x0509
    2384:	84 56       	subi	r24, 0x64	; 100
    2386:	9b 4f       	sbci	r25, 0xFB	; 251
    2388:	0e 94 5a 05 	call	0xab4	;  0xab4
    238c:	21 96       	adiw	r28, 0x01	; 1
    238e:	ca 30       	cpi	r28, 0x0A	; 10
    2390:	d1 05       	cpc	r29, r1
    2392:	69 f7       	brne	.-38     	;  0x236e
    2394:	80 e0       	ldi	r24, 0x00	; 0
    2396:	90 e0       	ldi	r25, 0x00	; 0
    2398:	a0 e0       	ldi	r26, 0x00	; 0
    239a:	b0 e0       	ldi	r27, 0x00	; 0
    239c:	80 93 0a 05 	sts	0x050A, r24
    23a0:	90 93 0b 05 	sts	0x050B, r25
    23a4:	a0 93 0c 05 	sts	0x050C, r26
    23a8:	b0 93 0d 05 	sts	0x050D, r27
    23ac:	80 93 0e 05 	sts	0x050E, r24
    23b0:	90 93 0f 05 	sts	0x050F, r25
    23b4:	a0 93 10 05 	sts	0x0510, r26
    23b8:	b0 93 11 05 	sts	0x0511, r27
    23bc:	10 92 1b 05 	sts	0x051B, r1
    23c0:	10 92 1a 05 	sts	0x051A, r1
    23c4:	10 92 1d 05 	sts	0x051D, r1
    23c8:	10 92 1c 05 	sts	0x051C, r1
    23cc:	10 92 1f 05 	sts	0x051F, r1
    23d0:	10 92 1e 05 	sts	0x051E, r1
    23d4:	10 92 21 05 	sts	0x0521, r1
    23d8:	10 92 20 05 	sts	0x0520, r1
    23dc:	10 92 23 05 	sts	0x0523, r1
    23e0:	10 92 22 05 	sts	0x0522, r1
    23e4:	10 92 25 05 	sts	0x0525, r1
    23e8:	10 92 24 05 	sts	0x0524, r1
    23ec:	10 92 27 05 	sts	0x0527, r1
    23f0:	10 92 26 05 	sts	0x0526, r1
    23f4:	10 92 29 05 	sts	0x0529, r1
    23f8:	10 92 28 05 	sts	0x0528, r1
    23fc:	10 92 2b 05 	sts	0x052B, r1
    2400:	10 92 2a 05 	sts	0x052A, r1
    2404:	10 92 2d 05 	sts	0x052D, r1
    2408:	10 92 2c 05 	sts	0x052C, r1
    240c:	10 92 2f 05 	sts	0x052F, r1
    2410:	10 92 2e 05 	sts	0x052E, r1
    2414:	10 92 31 05 	sts	0x0531, r1
    2418:	10 92 30 05 	sts	0x0530, r1
    241c:	10 92 33 05 	sts	0x0533, r1
    2420:	10 92 32 05 	sts	0x0532, r1
    2424:	10 92 35 05 	sts	0x0535, r1
    2428:	10 92 34 05 	sts	0x0534, r1
    242c:	10 92 37 05 	sts	0x0537, r1
    2430:	10 92 36 05 	sts	0x0536, r1
    2434:	80 93 44 05 	sts	0x0544, r24
    2438:	90 93 45 05 	sts	0x0545, r25
    243c:	a0 93 46 05 	sts	0x0546, r26
    2440:	b0 93 47 05 	sts	0x0547, r27
    2444:	85 e0       	ldi	r24, 0x05	; 5
    2446:	90 e0       	ldi	r25, 0x00	; 0
    2448:	a0 e0       	ldi	r26, 0x00	; 0
    244a:	b0 e0       	ldi	r27, 0x00	; 0
    244c:	80 93 50 05 	sts	0x0550, r24
    2450:	90 93 51 05 	sts	0x0551, r25
    2454:	a0 93 52 05 	sts	0x0552, r26
    2458:	b0 93 53 05 	sts	0x0553, r27
    245c:	0e 94 d4 27 	call	0x4fa8	;  0x4fa8
    2460:	60 93 4c 05 	sts	0x054C, r22
    2464:	70 93 4d 05 	sts	0x054D, r23
    2468:	80 93 4e 05 	sts	0x054E, r24
    246c:	90 93 4f 05 	sts	0x054F, r25
    2470:	82 e0       	ldi	r24, 0x02	; 2
    2472:	90 e0       	ldi	r25, 0x00	; 0
    2474:	a0 e0       	ldi	r26, 0x00	; 0
    2476:	b0 e0       	ldi	r27, 0x00	; 0
    2478:	80 93 5c 05 	sts	0x055C, r24
    247c:	90 93 5d 05 	sts	0x055D, r25
    2480:	a0 93 5e 05 	sts	0x055E, r26
    2484:	b0 93 5f 05 	sts	0x055F, r27
    2488:	0e 94 d4 27 	call	0x4fa8	;  0x4fa8
    248c:	60 93 58 05 	sts	0x0558, r22
    2490:	70 93 59 05 	sts	0x0559, r23
    2494:	80 93 5a 05 	sts	0x055A, r24
    2498:	90 93 5b 05 	sts	0x055B, r25
    249c:	82 ed       	ldi	r24, 0xD2	; 210
    249e:	92 e0       	ldi	r25, 0x02	; 2
    24a0:	90 93 61 05 	sts	0x0561, r25
    24a4:	80 93 60 05 	sts	0x0560, r24
    24a8:	80 e1       	ldi	r24, 0x10	; 16
    24aa:	97 e2       	ldi	r25, 0x27	; 39
    24ac:	a0 e0       	ldi	r26, 0x00	; 0
    24ae:	b0 e0       	ldi	r27, 0x00	; 0
    24b0:	80 93 6a 05 	sts	0x056A, r24
    24b4:	90 93 6b 05 	sts	0x056B, r25
    24b8:	a0 93 6c 05 	sts	0x056C, r26
    24bc:	b0 93 6d 05 	sts	0x056D, r27
    24c0:	0e 94 e2 27 	call	0x4fc4	;  0x4fc4
    24c4:	60 93 66 05 	sts	0x0566, r22
    24c8:	70 93 67 05 	sts	0x0567, r23
    24cc:	80 93 68 05 	sts	0x0568, r24
    24d0:	90 93 69 05 	sts	0x0569, r25
    24d4:	10 92 72 05 	sts	0x0572, r1
    24d8:	8f ef       	ldi	r24, 0xFF	; 255
    24da:	9f ef       	ldi	r25, 0xFF	; 255
    24dc:	af ef       	ldi	r26, 0xFF	; 255
    24de:	bf ef       	ldi	r27, 0xFF	; 255
    24e0:	80 93 6e 05 	sts	0x056E, r24
    24e4:	90 93 6f 05 	sts	0x056F, r25
    24e8:	a0 93 70 05 	sts	0x0570, r26
    24ec:	b0 93 71 05 	sts	0x0571, r27
    24f0:	10 92 73 05 	sts	0x0573, r1
    24f4:	82 ef       	ldi	r24, 0xF2	; 242
    24f6:	92 e0       	ldi	r25, 0x02	; 2
    24f8:	90 93 61 05 	sts	0x0561, r25
    24fc:	80 93 60 05 	sts	0x0560, r24
    2500:	10 92 23 03 	sts	0x0323, r1
    2504:	88 e8       	ldi	r24, 0x88	; 136
    2506:	93 e1       	ldi	r25, 0x13	; 19
    2508:	a0 e0       	ldi	r26, 0x00	; 0
    250a:	b0 e0       	ldi	r27, 0x00	; 0
    250c:	80 93 7c 05 	sts	0x057C, r24
    2510:	90 93 7d 05 	sts	0x057D, r25
    2514:	a0 93 7e 05 	sts	0x057E, r26
    2518:	b0 93 7f 05 	sts	0x057F, r27
    251c:	0e 94 d4 27 	call	0x4fa8	;  0x4fa8
    2520:	60 93 78 05 	sts	0x0578, r22
    2524:	70 93 79 05 	sts	0x0579, r23
    2528:	80 93 7a 05 	sts	0x057A, r24
    252c:	90 93 7b 05 	sts	0x057B, r25
    2530:	0b c0       	rjmp	.+22     	;  0x2548
    2532:	89 2b       	or	r24, r25
    2534:	49 f4       	brne	.+18     	;  0x2548
    2536:	6f 5f       	subi	r22, 0xFF	; 255
    2538:	7f 4f       	sbci	r23, 0xFF	; 255
    253a:	31 f4       	brne	.+12     	;  0x2548
    253c:	82 ed       	ldi	r24, 0xD2	; 210
    253e:	92 e0       	ldi	r25, 0x02	; 2
    2540:	90 93 61 05 	sts	0x0561, r25
    2544:	80 93 60 05 	sts	0x0560, r24
    2548:	df 91       	pop	r29
    254a:	cf 91       	pop	r28
    254c:	1f 91       	pop	r17
    254e:	0f 91       	pop	r16
    2550:	ff 90       	pop	r15
    2552:	ef 90       	pop	r14
    2554:	df 90       	pop	r13
    2556:	cf 90       	pop	r12
    2558:	bf 90       	pop	r11
    255a:	af 90       	pop	r10
    255c:	9f 90       	pop	r9
    255e:	8f 90       	pop	r8
    2560:	7f 90       	pop	r7
    2562:	6f 90       	pop	r6
    2564:	5f 90       	pop	r5
    2566:	4f 90       	pop	r4
    2568:	3f 90       	pop	r3
    256a:	2f 90       	pop	r2
    256c:	08 95       	ret
    256e:	80 e0       	ldi	r24, 0x00	; 0
    2570:	90 e0       	ldi	r25, 0x00	; 0
    2572:	6f ef       	ldi	r22, 0xFF	; 255
    2574:	7f ef       	ldi	r23, 0xFF	; 255
    2576:	42 cb       	rjmp	.-2428   	;  0x1bfc
    2578:	81 e0       	ldi	r24, 0x01	; 1
    257a:	90 e0       	ldi	r25, 0x00	; 0
    257c:	6f ef       	ldi	r22, 0xFF	; 255
    257e:	7f ef       	ldi	r23, 0xFF	; 255
    2580:	3d cb       	rjmp	.-2438   	;  0x1bfc
    2582:	ef 92       	push	r14
    2584:	ff 92       	push	r15
    2586:	0f 93       	push	r16
    2588:	1f 93       	push	r17
    258a:	df 93       	push	r29
    258c:	cf 93       	push	r28
    258e:	00 d0       	rcall	.+0      	;  0x2590
    2590:	00 d0       	rcall	.+0      	;  0x2592
    2592:	00 d0       	rcall	.+0      	;  0x2594
    2594:	cd b7       	in	r28, 0x3d	; 61
    2596:	de b7       	in	r29, 0x3e	; 62
    2598:	7c 01       	movw	r14, r24
    259a:	8b 01       	movw	r16, r22
    259c:	86 ea       	ldi	r24, 0xA6	; 166
    259e:	62 e3       	ldi	r22, 0x32	; 50
    25a0:	ae 01       	movw	r20, r28
    25a2:	4f 5f       	subi	r20, 0xFF	; 255
    25a4:	5f 4f       	sbci	r21, 0xFF	; 255
    25a6:	26 e0       	ldi	r18, 0x06	; 6
    25a8:	0e 94 9b 01 	call	0x336	;  0x336
    25ac:	88 23       	and	r24, r24
    25ae:	51 f1       	breq	.+84     	;  0x2604
    25b0:	9a 81       	ldd	r25, Y+2	; 0x02
    25b2:	80 e0       	ldi	r24, 0x00	; 0
    25b4:	29 81       	ldd	r18, Y+1	; 0x01
    25b6:	30 e0       	ldi	r19, 0x00	; 0
    25b8:	82 2b       	or	r24, r18
    25ba:	93 2b       	or	r25, r19
    25bc:	f7 01       	movw	r30, r14
    25be:	22 85       	ldd	r18, Z+10	; 0x0a
    25c0:	33 85       	ldd	r19, Z+11	; 0x0b
    25c2:	82 0f       	add	r24, r18
    25c4:	93 1f       	adc	r25, r19
    25c6:	90 95       	com	r25
    25c8:	81 95       	neg	r24
    25ca:	9f 4f       	sbci	r25, 0xFF	; 255
    25cc:	f8 01       	movw	r30, r16
    25ce:	93 83       	std	Z+3, r25	; 0x03
    25d0:	82 83       	std	Z+2, r24	; 0x02
    25d2:	9c 81       	ldd	r25, Y+4	; 0x04
    25d4:	80 e0       	ldi	r24, 0x00	; 0
    25d6:	2b 81       	ldd	r18, Y+3	; 0x03
    25d8:	30 e0       	ldi	r19, 0x00	; 0
    25da:	82 2b       	or	r24, r18
    25dc:	93 2b       	or	r25, r19
    25de:	f7 01       	movw	r30, r14
    25e0:	20 85       	ldd	r18, Z+8	; 0x08
    25e2:	31 85       	ldd	r19, Z+9	; 0x09
    25e4:	82 0f       	add	r24, r18
    25e6:	93 1f       	adc	r25, r19
    25e8:	90 95       	com	r25
    25ea:	81 95       	neg	r24
    25ec:	9f 4f       	sbci	r25, 0xFF	; 255
    25ee:	f8 01       	movw	r30, r16
    25f0:	91 83       	std	Z+1, r25	; 0x01
    25f2:	80 83       	st	Z, r24
    25f4:	9e 81       	ldd	r25, Y+6	; 0x06
    25f6:	80 e0       	ldi	r24, 0x00	; 0
    25f8:	2d 81       	ldd	r18, Y+5	; 0x05
    25fa:	30 e0       	ldi	r19, 0x00	; 0
    25fc:	82 2b       	or	r24, r18
    25fe:	93 2b       	or	r25, r19
    2600:	95 83       	std	Z+5, r25	; 0x05
    2602:	84 83       	std	Z+4, r24	; 0x04
    2604:	26 96       	adiw	r28, 0x06	; 6
    2606:	0f b6       	in	r0, 0x3f	; 63
    2608:	f8 94       	cli
    260a:	de bf       	out	0x3e, r29	; 62
    260c:	0f be       	out	0x3f, r0	; 63
    260e:	cd bf       	out	0x3d, r28	; 61
    2610:	cf 91       	pop	r28
    2612:	df 91       	pop	r29
    2614:	1f 91       	pop	r17
    2616:	0f 91       	pop	r16
    2618:	ff 90       	pop	r15
    261a:	ef 90       	pop	r14
    261c:	08 95       	ret
    261e:	ef 92       	push	r14
    2620:	ff 92       	push	r15
    2622:	0f 93       	push	r16
    2624:	1f 93       	push	r17
    2626:	df 93       	push	r29
    2628:	cf 93       	push	r28
    262a:	00 d0       	rcall	.+0      	;  0x262c
    262c:	00 d0       	rcall	.+0      	;  0x262e
    262e:	00 d0       	rcall	.+0      	;  0x2630
    2630:	cd b7       	in	r28, 0x3d	; 61
    2632:	de b7       	in	r29, 0x3e	; 62
    2634:	8c 01       	movw	r16, r24
    2636:	7b 01       	movw	r14, r22
    2638:	80 ed       	ldi	r24, 0xD0	; 208
    263a:	6d e1       	ldi	r22, 0x1D	; 29
    263c:	ae 01       	movw	r20, r28
    263e:	4f 5f       	subi	r20, 0xFF	; 255
    2640:	5f 4f       	sbci	r21, 0xFF	; 255
    2642:	26 e0       	ldi	r18, 0x06	; 6
    2644:	0e 94 9b 01 	call	0x336	;  0x336
    2648:	88 23       	and	r24, r24
    264a:	51 f1       	breq	.+84     	;  0x26a0
    264c:	39 81       	ldd	r19, Y+1	; 0x01
    264e:	20 e0       	ldi	r18, 0x00	; 0
    2650:	8a 81       	ldd	r24, Y+2	; 0x02
    2652:	90 e0       	ldi	r25, 0x00	; 0
    2654:	28 2b       	or	r18, r24
    2656:	39 2b       	or	r19, r25
    2658:	f8 01       	movw	r30, r16
    265a:	84 81       	ldd	r24, Z+4	; 0x04
    265c:	95 81       	ldd	r25, Z+5	; 0x05
    265e:	28 1b       	sub	r18, r24
    2660:	39 0b       	sbc	r19, r25
    2662:	f7 01       	movw	r30, r14
    2664:	33 83       	std	Z+3, r19	; 0x03
    2666:	22 83       	std	Z+2, r18	; 0x02
    2668:	3b 81       	ldd	r19, Y+3	; 0x03
    266a:	20 e0       	ldi	r18, 0x00	; 0
    266c:	8c 81       	ldd	r24, Y+4	; 0x04
    266e:	90 e0       	ldi	r25, 0x00	; 0
    2670:	28 2b       	or	r18, r24
    2672:	39 2b       	or	r19, r25
    2674:	f8 01       	movw	r30, r16
    2676:	82 81       	ldd	r24, Z+2	; 0x02
    2678:	93 81       	ldd	r25, Z+3	; 0x03
    267a:	28 1b       	sub	r18, r24
    267c:	39 0b       	sbc	r19, r25
    267e:	f7 01       	movw	r30, r14
    2680:	31 83       	std	Z+1, r19	; 0x01
    2682:	20 83       	st	Z, r18
    2684:	3d 81       	ldd	r19, Y+5	; 0x05
    2686:	20 e0       	ldi	r18, 0x00	; 0
    2688:	8e 81       	ldd	r24, Y+6	; 0x06
    268a:	90 e0       	ldi	r25, 0x00	; 0
    268c:	28 2b       	or	r18, r24
    268e:	39 2b       	or	r19, r25
    2690:	f8 01       	movw	r30, r16
    2692:	86 81       	ldd	r24, Z+6	; 0x06
    2694:	97 81       	ldd	r25, Z+7	; 0x07
    2696:	82 1b       	sub	r24, r18
    2698:	93 0b       	sbc	r25, r19
    269a:	f7 01       	movw	r30, r14
    269c:	95 83       	std	Z+5, r25	; 0x05
    269e:	84 83       	std	Z+4, r24	; 0x04
    26a0:	26 96       	adiw	r28, 0x06	; 6
    26a2:	0f b6       	in	r0, 0x3f	; 63
    26a4:	f8 94       	cli
    26a6:	de bf       	out	0x3e, r29	; 62
    26a8:	0f be       	out	0x3f, r0	; 63
    26aa:	cd bf       	out	0x3d, r28	; 61
    26ac:	cf 91       	pop	r28
    26ae:	df 91       	pop	r29
    26b0:	1f 91       	pop	r17
    26b2:	0f 91       	pop	r16
    26b4:	ff 90       	pop	r15
    26b6:	ef 90       	pop	r14
    26b8:	08 95       	ret
    26ba:	0f 93       	push	r16
    26bc:	1f 93       	push	r17
    26be:	df 93       	push	r29
    26c0:	cf 93       	push	r28
    26c2:	00 d0       	rcall	.+0      	;  0x26c4
    26c4:	00 d0       	rcall	.+0      	;  0x26c6
    26c6:	00 d0       	rcall	.+0      	;  0x26c8
    26c8:	cd b7       	in	r28, 0x3d	; 61
    26ca:	de b7       	in	r29, 0x3e	; 62
    26cc:	8b 01       	movw	r16, r22
    26ce:	8c e3       	ldi	r24, 0x3C	; 60
    26d0:	63 e0       	ldi	r22, 0x03	; 3
    26d2:	ae 01       	movw	r20, r28
    26d4:	4f 5f       	subi	r20, 0xFF	; 255
    26d6:	5f 4f       	sbci	r21, 0xFF	; 255
    26d8:	26 e0       	ldi	r18, 0x06	; 6
    26da:	0e 94 9b 01 	call	0x336	;  0x336
    26de:	88 23       	and	r24, r24
    26e0:	e1 f0       	breq	.+56     	;  0x271a
    26e2:	99 81       	ldd	r25, Y+1	; 0x01
    26e4:	80 e0       	ldi	r24, 0x00	; 0
    26e6:	2a 81       	ldd	r18, Y+2	; 0x02
    26e8:	30 e0       	ldi	r19, 0x00	; 0
    26ea:	82 2b       	or	r24, r18
    26ec:	93 2b       	or	r25, r19
    26ee:	f8 01       	movw	r30, r16
    26f0:	93 83       	std	Z+3, r25	; 0x03
    26f2:	82 83       	std	Z+2, r24	; 0x02
    26f4:	9b 81       	ldd	r25, Y+3	; 0x03
    26f6:	80 e0       	ldi	r24, 0x00	; 0
    26f8:	2c 81       	ldd	r18, Y+4	; 0x04
    26fa:	30 e0       	ldi	r19, 0x00	; 0
    26fc:	82 2b       	or	r24, r18
    26fe:	93 2b       	or	r25, r19
    2700:	90 95       	com	r25
    2702:	81 95       	neg	r24
    2704:	9f 4f       	sbci	r25, 0xFF	; 255
    2706:	95 83       	std	Z+5, r25	; 0x05
    2708:	84 83       	std	Z+4, r24	; 0x04
    270a:	9d 81       	ldd	r25, Y+5	; 0x05
    270c:	80 e0       	ldi	r24, 0x00	; 0
    270e:	2e 81       	ldd	r18, Y+6	; 0x06
    2710:	30 e0       	ldi	r19, 0x00	; 0
    2712:	82 2b       	or	r24, r18
    2714:	93 2b       	or	r25, r19
    2716:	91 83       	std	Z+1, r25	; 0x01
    2718:	80 83       	st	Z, r24
    271a:	26 96       	adiw	r28, 0x06	; 6
    271c:	0f b6       	in	r0, 0x3f	; 63
    271e:	f8 94       	cli
    2720:	de bf       	out	0x3e, r29	; 62
    2722:	0f be       	out	0x3f, r0	; 63
    2724:	cd bf       	out	0x3d, r28	; 61
    2726:	cf 91       	pop	r28
    2728:	df 91       	pop	r29
    272a:	1f 91       	pop	r17
    272c:	0f 91       	pop	r16
    272e:	08 95       	ret
    2730:	2f 92       	push	r2
    2732:	3f 92       	push	r3
    2734:	4f 92       	push	r4
    2736:	5f 92       	push	r5
    2738:	6f 92       	push	r6
    273a:	7f 92       	push	r7
    273c:	8f 92       	push	r8
    273e:	9f 92       	push	r9
    2740:	af 92       	push	r10
    2742:	bf 92       	push	r11
    2744:	cf 92       	push	r12
    2746:	df 92       	push	r13
    2748:	ef 92       	push	r14
    274a:	ff 92       	push	r15
    274c:	0f 93       	push	r16
    274e:	1f 93       	push	r17
    2750:	df 93       	push	r29
    2752:	cf 93       	push	r28
    2754:	cd b7       	in	r28, 0x3d	; 61
    2756:	de b7       	in	r29, 0x3e	; 62
    2758:	28 97       	sbiw	r28, 0x08	; 8
    275a:	0f b6       	in	r0, 0x3f	; 63
    275c:	f8 94       	cli
    275e:	de bf       	out	0x3e, r29	; 62
    2760:	0f be       	out	0x3f, r0	; 63
    2762:	cd bf       	out	0x3d, r28	; 61
    2764:	6c 01       	movw	r12, r24
    2766:	bc 01       	movw	r22, r24
    2768:	68 50       	subi	r22, 0x08	; 8
    276a:	7e 4f       	sbci	r23, 0xFE	; 254
    276c:	0a df       	rcall	.-492    	;  0x2582
    276e:	86 01       	movw	r16, r12
    2770:	02 50       	subi	r16, 0x02	; 2
    2772:	1e 4f       	sbci	r17, 0xFE	; 254
    2774:	c6 01       	movw	r24, r12
    2776:	b8 01       	movw	r22, r16
    2778:	52 df       	rcall	.-348    	;  0x261e
    277a:	c6 01       	movw	r24, r12
    277c:	b8 01       	movw	r22, r16
    277e:	4f df       	rcall	.-354    	;  0x261e
    2780:	34 e0       	ldi	r19, 0x04	; 4
    2782:	a3 2e       	mov	r10, r19
    2784:	32 e0       	ldi	r19, 0x02	; 2
    2786:	b3 2e       	mov	r11, r19
    2788:	ac 0c       	add	r10, r12
    278a:	bd 1c       	adc	r11, r13
    278c:	c6 01       	movw	r24, r12
    278e:	b5 01       	movw	r22, r10
    2790:	94 df       	rcall	.-216    	;  0x26ba
    2792:	26 e0       	ldi	r18, 0x06	; 6
    2794:	32 e0       	ldi	r19, 0x02	; 2
    2796:	c2 0e       	add	r12, r18
    2798:	d3 1e       	adc	r13, r19
    279a:	d6 01       	movw	r26, r12
    279c:	6d 91       	ld	r22, X+
    279e:	7c 91       	ld	r23, X
    27a0:	88 27       	eor	r24, r24
    27a2:	77 fd       	sbrc	r23, 7
    27a4:	80 95       	com	r24
    27a6:	98 2f       	mov	r25, r24
    27a8:	0e 94 d7 2b 	call	0x57ae	;  0x57ae
    27ac:	7b 01       	movw	r14, r22
    27ae:	8c 01       	movw	r16, r24
    27b0:	f5 01       	movw	r30, r10
    27b2:	60 81       	ld	r22, Z
    27b4:	71 81       	ldd	r23, Z+1	; 0x01
    27b6:	88 27       	eor	r24, r24
    27b8:	77 fd       	sbrc	r23, 7
    27ba:	80 95       	com	r24
    27bc:	98 2f       	mov	r25, r24
    27be:	0e 94 d7 2b 	call	0x57ae	;  0x57ae
    27c2:	9b 01       	movw	r18, r22
    27c4:	ac 01       	movw	r20, r24
    27c6:	c8 01       	movw	r24, r16
    27c8:	b7 01       	movw	r22, r14
    27ca:	0e 94 e2 2a 	call	0x55c4	;  0x55c4
    27ce:	24 e1       	ldi	r18, 0x14	; 20
    27d0:	30 e0       	ldi	r19, 0x00	; 0
    27d2:	c2 0e       	add	r12, r18
    27d4:	d3 1e       	adc	r13, r19
    27d6:	d6 01       	movw	r26, r12
    27d8:	6d 93       	st	X+, r22
    27da:	7d 93       	st	X+, r23
    27dc:	8d 93       	st	X+, r24
    27de:	9c 93       	st	X, r25
    27e0:	13 97       	sbiw	r26, 0x03	; 3
    27e2:	ec ef       	ldi	r30, 0xFC	; 252
    27e4:	ff ef       	ldi	r31, 0xFF	; 255
    27e6:	ce 0e       	add	r12, r30
    27e8:	df 1e       	adc	r13, r31
    27ea:	d6 01       	movw	r26, r12
    27ec:	ed 90       	ld	r14, X+
    27ee:	fc 90       	ld	r15, X
    27f0:	ea ee       	ldi	r30, 0xEA	; 234
    27f2:	fd ef       	ldi	r31, 0xFD	; 253
    27f4:	ce 0e       	add	r12, r30
    27f6:	df 1e       	adc	r13, r31
    27f8:	00 27       	eor	r16, r16
    27fa:	f7 fc       	sbrc	r15, 7
    27fc:	00 95       	com	r16
    27fe:	10 2f       	mov	r17, r16
    2800:	2a e0       	ldi	r18, 0x0A	; 10
    2802:	62 2e       	mov	r6, r18
    2804:	22 e0       	ldi	r18, 0x02	; 2
    2806:	72 2e       	mov	r7, r18
    2808:	6c 0c       	add	r6, r12
    280a:	7d 1c       	adc	r7, r13
    280c:	d3 01       	movw	r26, r6
    280e:	6d 91       	ld	r22, X+
    2810:	7c 91       	ld	r23, X
    2812:	88 27       	eor	r24, r24
    2814:	77 fd       	sbrc	r23, 7
    2816:	80 95       	com	r24
    2818:	98 2f       	mov	r25, r24
    281a:	2d e4       	ldi	r18, 0x4D	; 77
    281c:	32 e0       	ldi	r19, 0x02	; 2
    281e:	40 e0       	ldi	r20, 0x00	; 0
    2820:	50 e0       	ldi	r21, 0x00	; 0
    2822:	0e 94 ea 2d 	call	0x5bd4	;  0x5bd4
    2826:	a8 01       	movw	r20, r16
    2828:	97 01       	movw	r18, r14
    282a:	0e 94 52 2e 	call	0x5ca4	;  0x5ca4
    282e:	49 01       	movw	r8, r18
    2830:	5a 01       	movw	r10, r20
    2832:	f3 01       	movw	r30, r6
    2834:	31 83       	std	Z+1, r19	; 0x01
    2836:	20 83       	st	Z, r18
    2838:	9c e0       	ldi	r25, 0x0C	; 12
    283a:	29 2e       	mov	r2, r25
    283c:	92 e0       	ldi	r25, 0x02	; 2
    283e:	39 2e       	mov	r3, r25
    2840:	2c 0c       	add	r2, r12
    2842:	3d 1c       	adc	r3, r13
    2844:	d1 01       	movw	r26, r2
    2846:	6d 91       	ld	r22, X+
    2848:	7c 91       	ld	r23, X
    284a:	88 27       	eor	r24, r24
    284c:	77 fd       	sbrc	r23, 7
    284e:	80 95       	com	r24
    2850:	98 2f       	mov	r25, r24
    2852:	2d e4       	ldi	r18, 0x4D	; 77
    2854:	32 e0       	ldi	r19, 0x02	; 2
    2856:	40 e0       	ldi	r20, 0x00	; 0
    2858:	50 e0       	ldi	r21, 0x00	; 0
    285a:	0e 94 ea 2d 	call	0x5bd4	;  0x5bd4
    285e:	a8 01       	movw	r20, r16
    2860:	97 01       	movw	r18, r14
    2862:	0e 94 52 2e 	call	0x5ca4	;  0x5ca4
    2866:	29 01       	movw	r4, r18
    2868:	3a 01       	movw	r6, r20
    286a:	f1 01       	movw	r30, r2
    286c:	31 83       	std	Z+1, r19	; 0x01
    286e:	20 83       	st	Z, r18
    2870:	8e e0       	ldi	r24, 0x0E	; 14
    2872:	28 2e       	mov	r2, r24
    2874:	82 e0       	ldi	r24, 0x02	; 2
    2876:	38 2e       	mov	r3, r24
    2878:	2c 0c       	add	r2, r12
    287a:	3d 1c       	adc	r3, r13
    287c:	d1 01       	movw	r26, r2
    287e:	6d 91       	ld	r22, X+
    2880:	7c 91       	ld	r23, X
    2882:	88 27       	eor	r24, r24
    2884:	77 fd       	sbrc	r23, 7
    2886:	80 95       	com	r24
    2888:	98 2f       	mov	r25, r24
    288a:	2d e4       	ldi	r18, 0x4D	; 77
    288c:	32 e0       	ldi	r19, 0x02	; 2
    288e:	40 e0       	ldi	r20, 0x00	; 0
    2890:	50 e0       	ldi	r21, 0x00	; 0
    2892:	0e 94 ea 2d 	call	0x5bd4	;  0x5bd4
    2896:	a8 01       	movw	r20, r16
    2898:	97 01       	movw	r18, r14
    289a:	0e 94 52 2e 	call	0x5ca4	;  0x5ca4
    289e:	59 01       	movw	r10, r18
    28a0:	f1 01       	movw	r30, r2
    28a2:	31 83       	std	Z+1, r19	; 0x01
    28a4:	20 83       	st	Z, r18
    28a6:	20 e1       	ldi	r18, 0x10	; 16
    28a8:	32 e0       	ldi	r19, 0x02	; 2
    28aa:	c2 0e       	add	r12, r18
    28ac:	d3 1e       	adc	r13, r19
    28ae:	66 24       	eor	r6, r6
    28b0:	57 fc       	sbrc	r5, 7
    28b2:	60 94       	com	r6
    28b4:	76 2c       	mov	r7, r6
    28b6:	c3 01       	movw	r24, r6
    28b8:	b2 01       	movw	r22, r4
    28ba:	2b e4       	ldi	r18, 0x4B	; 75
    28bc:	32 e0       	ldi	r19, 0x02	; 2
    28be:	40 e0       	ldi	r20, 0x00	; 0
    28c0:	50 e0       	ldi	r21, 0x00	; 0
    28c2:	0e 94 ea 2d 	call	0x5bd4	;  0x5bd4
    28c6:	7b 01       	movw	r14, r22
    28c8:	8c 01       	movw	r16, r24
    28ca:	c4 01       	movw	r24, r8
    28cc:	aa 27       	eor	r26, r26
    28ce:	97 fd       	sbrc	r25, 7
    28d0:	a0 95       	com	r26
    28d2:	ba 2f       	mov	r27, r26
    28d4:	89 83       	std	Y+1, r24	; 0x01
    28d6:	9a 83       	std	Y+2, r25	; 0x02
    28d8:	ab 83       	std	Y+3, r26	; 0x03
    28da:	bc 83       	std	Y+4, r27	; 0x04
    28dc:	bc 01       	movw	r22, r24
    28de:	cd 01       	movw	r24, r26
    28e0:	2b e2       	ldi	r18, 0x2B	; 43
    28e2:	31 e0       	ldi	r19, 0x01	; 1
    28e4:	40 e0       	ldi	r20, 0x00	; 0
    28e6:	50 e0       	ldi	r21, 0x00	; 0
    28e8:	0e 94 ea 2d 	call	0x5bd4	;  0x5bd4
    28ec:	e6 0e       	add	r14, r22
    28ee:	f7 1e       	adc	r15, r23
    28f0:	08 1f       	adc	r16, r24
    28f2:	19 1f       	adc	r17, r25
    28f4:	c5 01       	movw	r24, r10
    28f6:	aa 27       	eor	r26, r26
    28f8:	97 fd       	sbrc	r25, 7
    28fa:	a0 95       	com	r26
    28fc:	ba 2f       	mov	r27, r26
    28fe:	8d 83       	std	Y+5, r24	; 0x05
    2900:	9e 83       	std	Y+6, r25	; 0x06
    2902:	af 83       	std	Y+7, r26	; 0x07
    2904:	b8 87       	std	Y+8, r27	; 0x08
    2906:	bc 01       	movw	r22, r24
    2908:	cd 01       	movw	r24, r26
    290a:	22 e7       	ldi	r18, 0x72	; 114
    290c:	30 e0       	ldi	r19, 0x00	; 0
    290e:	40 e0       	ldi	r20, 0x00	; 0
    2910:	50 e0       	ldi	r21, 0x00	; 0
    2912:	0e 94 ea 2d 	call	0x5bd4	;  0x5bd4
    2916:	e6 0e       	add	r14, r22
    2918:	f7 1e       	adc	r15, r23
    291a:	08 1f       	adc	r16, r24
    291c:	19 1f       	adc	r17, r25
    291e:	c8 01       	movw	r24, r16
    2920:	b7 01       	movw	r22, r14
    2922:	28 ee       	ldi	r18, 0xE8	; 232
    2924:	33 e0       	ldi	r19, 0x03	; 3
    2926:	40 e0       	ldi	r20, 0x00	; 0
    2928:	50 e0       	ldi	r21, 0x00	; 0
    292a:	0e 94 52 2e 	call	0x5ca4	;  0x5ca4
    292e:	d6 01       	movw	r26, r12
    2930:	2d 93       	st	X+, r18
    2932:	3d 93       	st	X+, r19
    2934:	6d 01       	movw	r12, r26
    2936:	c3 01       	movw	r24, r6
    2938:	b2 01       	movw	r22, r4
    293a:	24 eb       	ldi	r18, 0xB4	; 180
    293c:	3e ef       	ldi	r19, 0xFE	; 254
    293e:	4f ef       	ldi	r20, 0xFF	; 255
    2940:	5f ef       	ldi	r21, 0xFF	; 255
    2942:	0e 94 ea 2d 	call	0x5bd4	;  0x5bd4
    2946:	7b 01       	movw	r14, r22
    2948:	8c 01       	movw	r16, r24
    294a:	69 81       	ldd	r22, Y+1	; 0x01
    294c:	7a 81       	ldd	r23, Y+2	; 0x02
    294e:	8b 81       	ldd	r24, Y+3	; 0x03
    2950:	9c 81       	ldd	r25, Y+4	; 0x04
    2952:	27 e5       	ldi	r18, 0x57	; 87
    2954:	3f ef       	ldi	r19, 0xFF	; 255
    2956:	4f ef       	ldi	r20, 0xFF	; 255
    2958:	5f ef       	ldi	r21, 0xFF	; 255
    295a:	0e 94 ea 2d 	call	0x5bd4	;  0x5bd4
    295e:	e6 0e       	add	r14, r22
    2960:	f7 1e       	adc	r15, r23
    2962:	08 1f       	adc	r16, r24
    2964:	19 1f       	adc	r17, r25
    2966:	6d 81       	ldd	r22, Y+5	; 0x05
    2968:	7e 81       	ldd	r23, Y+6	; 0x06
    296a:	8f 81       	ldd	r24, Y+7	; 0x07
    296c:	98 85       	ldd	r25, Y+8	; 0x08
    296e:	24 ef       	ldi	r18, 0xF4	; 244
    2970:	31 e0       	ldi	r19, 0x01	; 1
    2972:	40 e0       	ldi	r20, 0x00	; 0
    2974:	50 e0       	ldi	r21, 0x00	; 0
    2976:	0e 94 ea 2d 	call	0x5bd4	;  0x5bd4
    297a:	e6 0e       	add	r14, r22
    297c:	f7 1e       	adc	r15, r23
    297e:	08 1f       	adc	r16, r24
    2980:	19 1f       	adc	r17, r25
    2982:	c8 01       	movw	r24, r16
    2984:	b7 01       	movw	r22, r14
    2986:	28 ee       	ldi	r18, 0xE8	; 232
    2988:	33 e0       	ldi	r19, 0x03	; 3
    298a:	40 e0       	ldi	r20, 0x00	; 0
    298c:	50 e0       	ldi	r21, 0x00	; 0
    298e:	0e 94 52 2e 	call	0x5ca4	;  0x5ca4
    2992:	f6 01       	movw	r30, r12
    2994:	21 93       	st	Z+, r18
    2996:	31 93       	st	Z+, r19
    2998:	6f 01       	movw	r12, r30
    299a:	c3 01       	movw	r24, r6
    299c:	b2 01       	movw	r22, r4
    299e:	2d e5       	ldi	r18, 0x5D	; 93
    29a0:	3e ef       	ldi	r19, 0xFE	; 254
    29a2:	4f ef       	ldi	r20, 0xFF	; 255
    29a4:	5f ef       	ldi	r21, 0xFF	; 255
    29a6:	0e 94 ea 2d 	call	0x5bd4	;  0x5bd4
    29aa:	7b 01       	movw	r14, r22
    29ac:	8c 01       	movw	r16, r24
    29ae:	69 81       	ldd	r22, Y+1	; 0x01
    29b0:	7a 81       	ldd	r23, Y+2	; 0x02
    29b2:	8b 81       	ldd	r24, Y+3	; 0x03
    29b4:	9c 81       	ldd	r25, Y+4	; 0x04
    29b6:	24 ef       	ldi	r18, 0xF4	; 244
    29b8:	31 e0       	ldi	r19, 0x01	; 1
    29ba:	40 e0       	ldi	r20, 0x00	; 0
    29bc:	50 e0       	ldi	r21, 0x00	; 0
    29be:	0e 94 ea 2d 	call	0x5bd4	;  0x5bd4
    29c2:	e6 0e       	add	r14, r22
    29c4:	f7 1e       	adc	r15, r23
    29c6:	08 1f       	adc	r16, r24
    29c8:	19 1f       	adc	r17, r25
    29ca:	6d 81       	ldd	r22, Y+5	; 0x05
    29cc:	7e 81       	ldd	r23, Y+6	; 0x06
    29ce:	8f 81       	ldd	r24, Y+7	; 0x07
    29d0:	98 85       	ldd	r25, Y+8	; 0x08
    29d2:	21 e5       	ldi	r18, 0x51	; 81
    29d4:	30 e0       	ldi	r19, 0x00	; 0
    29d6:	40 e0       	ldi	r20, 0x00	; 0
    29d8:	50 e0       	ldi	r21, 0x00	; 0
    29da:	0e 94 ea 2d 	call	0x5bd4	;  0x5bd4
    29de:	e6 0e       	add	r14, r22
    29e0:	f7 1e       	adc	r15, r23
    29e2:	08 1f       	adc	r16, r24
    29e4:	19 1f       	adc	r17, r25
    29e6:	c8 01       	movw	r24, r16
    29e8:	b7 01       	movw	r22, r14
    29ea:	28 ee       	ldi	r18, 0xE8	; 232
    29ec:	33 e0       	ldi	r19, 0x03	; 3
    29ee:	40 e0       	ldi	r20, 0x00	; 0
    29f0:	50 e0       	ldi	r21, 0x00	; 0
    29f2:	0e 94 52 2e 	call	0x5ca4	;  0x5ca4
    29f6:	d6 01       	movw	r26, r12
    29f8:	2d 93       	st	X+, r18
    29fa:	3c 93       	st	X, r19
    29fc:	e4 e0       	ldi	r30, 0x04	; 4
    29fe:	f0 e0       	ldi	r31, 0x00	; 0
    2a00:	ce 0e       	add	r12, r30
    2a02:	df 1e       	adc	r13, r31
    2a04:	c5 01       	movw	r24, r10
    2a06:	88 0f       	add	r24, r24
    2a08:	99 1f       	adc	r25, r25
    2a0a:	8a 0d       	add	r24, r10
    2a0c:	9b 1d       	adc	r25, r11
    2a0e:	88 0f       	add	r24, r24
    2a10:	99 1f       	adc	r25, r25
    2a12:	88 0c       	add	r8, r8
    2a14:	99 1c       	adc	r9, r9
    2a16:	88 0c       	add	r8, r8
    2a18:	99 1c       	adc	r9, r9
    2a1a:	88 0d       	add	r24, r8
    2a1c:	99 1d       	adc	r25, r9
    2a1e:	6a e0       	ldi	r22, 0x0A	; 10
    2a20:	70 e0       	ldi	r23, 0x00	; 0
    2a22:	0e 94 1d 2e 	call	0x5c3a	;  0x5c3a
    2a26:	d6 01       	movw	r26, r12
    2a28:	6d 93       	st	X+, r22
    2a2a:	7c 93       	st	X, r23
    2a2c:	28 96       	adiw	r28, 0x08	; 8
    2a2e:	0f b6       	in	r0, 0x3f	; 63
    2a30:	f8 94       	cli
    2a32:	de bf       	out	0x3e, r29	; 62
    2a34:	0f be       	out	0x3f, r0	; 63
    2a36:	cd bf       	out	0x3d, r28	; 61
    2a38:	cf 91       	pop	r28
    2a3a:	df 91       	pop	r29
    2a3c:	1f 91       	pop	r17
    2a3e:	0f 91       	pop	r16
    2a40:	ff 90       	pop	r15
    2a42:	ef 90       	pop	r14
    2a44:	df 90       	pop	r13
    2a46:	cf 90       	pop	r12
    2a48:	bf 90       	pop	r11
    2a4a:	af 90       	pop	r10
    2a4c:	9f 90       	pop	r9
    2a4e:	8f 90       	pop	r8
    2a50:	7f 90       	pop	r7
    2a52:	6f 90       	pop	r6
    2a54:	5f 90       	pop	r5
    2a56:	4f 90       	pop	r4
    2a58:	3f 90       	pop	r3
    2a5a:	2f 90       	pop	r2
    2a5c:	08 95       	ret
    2a5e:	ef 92       	push	r14
    2a60:	ff 92       	push	r15
    2a62:	0f 93       	push	r16
    2a64:	1f 93       	push	r17
    2a66:	14 d5       	rcall	.+2600   	;  0x3490
    2a68:	0e 94 d4 27 	call	0x4fa8	;  0x4fa8
    2a6c:	7b 01       	movw	r14, r22
    2a6e:	8c 01       	movw	r16, r24
    2a70:	60 93 54 05 	sts	0x0554, r22
    2a74:	70 93 55 05 	sts	0x0555, r23
    2a78:	80 93 56 05 	sts	0x0556, r24
    2a7c:	90 93 57 05 	sts	0x0557, r25
    2a80:	80 91 5c 05 	lds	r24, 0x055C
    2a84:	90 91 5d 05 	lds	r25, 0x055D
    2a88:	a0 91 5e 05 	lds	r26, 0x055E
    2a8c:	b0 91 5f 05 	lds	r27, 0x055F
    2a90:	20 91 58 05 	lds	r18, 0x0558
    2a94:	30 91 59 05 	lds	r19, 0x0559
    2a98:	40 91 5a 05 	lds	r20, 0x055A
    2a9c:	50 91 5b 05 	lds	r21, 0x055B
    2aa0:	82 0f       	add	r24, r18
    2aa2:	93 1f       	adc	r25, r19
    2aa4:	a4 1f       	adc	r26, r20
    2aa6:	b5 1f       	adc	r27, r21
    2aa8:	8e 15       	cp	r24, r14
    2aaa:	9f 05       	cpc	r25, r15
    2aac:	a0 07       	cpc	r26, r16
    2aae:	b1 07       	cpc	r27, r17
    2ab0:	08 f0       	brcs	.+2      	;  0x2ab4
    2ab2:	40 c0       	rjmp	.+128    	;  0x2b34
    2ab4:	e0 92 58 05 	sts	0x0558, r14
    2ab8:	f0 92 59 05 	sts	0x0559, r15
    2abc:	00 93 5a 05 	sts	0x055A, r16
    2ac0:	10 93 5b 05 	sts	0x055B, r17
    2ac4:	80 91 23 03 	lds	r24, 0x0323
    2ac8:	88 23       	and	r24, r24
    2aca:	19 f0       	breq	.+6      	;  0x2ad2
    2acc:	81 30       	cpi	r24, 0x01	; 1
    2ace:	91 f5       	brne	.+100    	;  0x2b34
    2ad0:	09 c0       	rjmp	.+18     	;  0x2ae4
    2ad2:	88 ee       	ldi	r24, 0xE8	; 232
    2ad4:	60 e0       	ldi	r22, 0x00	; 0
    2ad6:	41 e0       	ldi	r20, 0x01	; 1
    2ad8:	0e 94 8c 01 	call	0x318	;  0x318
    2adc:	81 e0       	ldi	r24, 0x01	; 1
    2ade:	80 93 23 03 	sts	0x0323, r24
    2ae2:	28 c0       	rjmp	.+80     	;  0x2b34
    2ae4:	88 ee       	ldi	r24, 0xE8	; 232
    2ae6:	60 e0       	ldi	r22, 0x00	; 0
    2ae8:	0e 94 ee 01 	call	0x3dc	;  0x3dc
    2aec:	88 23       	and	r24, r24
    2aee:	11 f5       	brne	.+68     	;  0x2b34
    2af0:	88 ee       	ldi	r24, 0xE8	; 232
    2af2:	60 e4       	ldi	r22, 0x40	; 64
    2af4:	0e 94 cd 01 	call	0x39a	;  0x39a
    2af8:	90 93 2d 05 	sts	0x052D, r25
    2afc:	80 93 2c 05 	sts	0x052C, r24
    2b00:	88 ee       	ldi	r24, 0xE8	; 232
    2b02:	62 e4       	ldi	r22, 0x42	; 66
    2b04:	0e 94 cd 01 	call	0x39a	;  0x39a
    2b08:	90 93 2f 05 	sts	0x052F, r25
    2b0c:	80 93 2e 05 	sts	0x052E, r24
    2b10:	88 ee       	ldi	r24, 0xE8	; 232
    2b12:	64 e4       	ldi	r22, 0x44	; 68
    2b14:	0e 94 cd 01 	call	0x39a	;  0x39a
    2b18:	90 93 31 05 	sts	0x0531, r25
    2b1c:	80 93 30 05 	sts	0x0530, r24
    2b20:	88 ee       	ldi	r24, 0xE8	; 232
    2b22:	66 e4       	ldi	r22, 0x46	; 70
    2b24:	0e 94 cd 01 	call	0x39a	;  0x39a
    2b28:	90 93 39 05 	sts	0x0539, r25
    2b2c:	80 93 38 05 	sts	0x0538, r24
    2b30:	10 92 23 03 	sts	0x0323, r1
    2b34:	0e 94 d4 27 	call	0x4fa8	;  0x4fa8
    2b38:	7b 01       	movw	r14, r22
    2b3a:	8c 01       	movw	r16, r24
    2b3c:	60 93 48 05 	sts	0x0548, r22
    2b40:	70 93 49 05 	sts	0x0549, r23
    2b44:	80 93 4a 05 	sts	0x054A, r24
    2b48:	90 93 4b 05 	sts	0x054B, r25
    2b4c:	80 91 50 05 	lds	r24, 0x0550
    2b50:	90 91 51 05 	lds	r25, 0x0551
    2b54:	a0 91 52 05 	lds	r26, 0x0552
    2b58:	b0 91 53 05 	lds	r27, 0x0553
    2b5c:	20 91 4c 05 	lds	r18, 0x054C
    2b60:	30 91 4d 05 	lds	r19, 0x054D
    2b64:	40 91 4e 05 	lds	r20, 0x054E
    2b68:	50 91 4f 05 	lds	r21, 0x054F
    2b6c:	82 0f       	add	r24, r18
    2b6e:	93 1f       	adc	r25, r19
    2b70:	a4 1f       	adc	r26, r20
    2b72:	b5 1f       	adc	r27, r21
    2b74:	8e 15       	cp	r24, r14
    2b76:	9f 05       	cpc	r25, r15
    2b78:	a0 07       	cpc	r26, r16
    2b7a:	b1 07       	cpc	r27, r17
    2b7c:	98 f4       	brcc	.+38     	;  0x2ba4
    2b7e:	e0 92 4c 05 	sts	0x054C, r14
    2b82:	f0 92 4d 05 	sts	0x054D, r15
    2b86:	00 93 4e 05 	sts	0x054E, r16
    2b8a:	10 93 4f 05 	sts	0x054F, r17
    2b8e:	82 e2       	ldi	r24, 0x22	; 34
    2b90:	93 e0       	ldi	r25, 0x03	; 3
    2b92:	0e 94 f1 05 	call	0xbe2	;  0xbe2
    2b96:	82 e2       	ldi	r24, 0x22	; 34
    2b98:	93 e0       	ldi	r25, 0x03	; 3
    2b9a:	ca dd       	rcall	.-1132   	;  0x2730
    2b9c:	82 e2       	ldi	r24, 0x22	; 34
    2b9e:	93 e0       	ldi	r25, 0x03	; 3
    2ba0:	0e 94 c3 06 	call	0xd86	;  0xd86
    2ba4:	1f 91       	pop	r17
    2ba6:	0f 91       	pop	r16
    2ba8:	ff 90       	pop	r15
    2baa:	ef 90       	pop	r14
    2bac:	08 95       	ret
    2bae:	0f 93       	push	r16
    2bb0:	1f 93       	push	r17
    2bb2:	86 2f       	mov	r24, r22
    2bb4:	14 2f       	mov	r17, r20
    2bb6:	02 2f       	mov	r16, r18
    2bb8:	04 d6       	rcall	.+3080   	;  0x37c2
    2bba:	81 2f       	mov	r24, r17
    2bbc:	18 d6       	rcall	.+3120   	;  0x37ee
    2bbe:	80 2f       	mov	r24, r16
    2bc0:	16 d6       	rcall	.+3116   	;  0x37ee
    2bc2:	0c d6       	rcall	.+3096   	;  0x37dc
    2bc4:	1f 91       	pop	r17
    2bc6:	0f 91       	pop	r16
    2bc8:	08 95       	ret
    2bca:	cf 93       	push	r28
    2bcc:	df 93       	push	r29
    2bce:	ec 01       	movw	r28, r24
    2bd0:	61 15       	cp	r22, r1
    2bd2:	71 05       	cpc	r23, r1
    2bd4:	21 f0       	breq	.+8      	;  0x2bde
    2bd6:	8d e3       	ldi	r24, 0x3D	; 61
    2bd8:	97 e0       	ldi	r25, 0x07	; 7
    2bda:	0e 94 41 26 	call	0x4c82	;  0x4c82
    2bde:	68 81       	ld	r22, Y
    2be0:	79 81       	ldd	r23, Y+1	; 0x01
    2be2:	8d e3       	ldi	r24, 0x3D	; 61
    2be4:	97 e0       	ldi	r25, 0x07	; 7
    2be6:	4a e0       	ldi	r20, 0x0A	; 10
    2be8:	50 e0       	ldi	r21, 0x00	; 0
    2bea:	0e 94 12 26 	call	0x4c24	;  0x4c24
    2bee:	8d e3       	ldi	r24, 0x3D	; 61
    2bf0:	97 e0       	ldi	r25, 0x07	; 7
    2bf2:	60 e0       	ldi	r22, 0x00	; 0
    2bf4:	71 e0       	ldi	r23, 0x01	; 1
    2bf6:	0e 94 41 26 	call	0x4c82	;  0x4c82
    2bfa:	6a 81       	ldd	r22, Y+2	; 0x02
    2bfc:	7b 81       	ldd	r23, Y+3	; 0x03
    2bfe:	8d e3       	ldi	r24, 0x3D	; 61
    2c00:	97 e0       	ldi	r25, 0x07	; 7
    2c02:	4a e0       	ldi	r20, 0x0A	; 10
    2c04:	50 e0       	ldi	r21, 0x00	; 0
    2c06:	0e 94 12 26 	call	0x4c24	;  0x4c24
    2c0a:	8d e3       	ldi	r24, 0x3D	; 61
    2c0c:	97 e0       	ldi	r25, 0x07	; 7
    2c0e:	60 e0       	ldi	r22, 0x00	; 0
    2c10:	71 e0       	ldi	r23, 0x01	; 1
    2c12:	0e 94 41 26 	call	0x4c82	;  0x4c82
    2c16:	6c 81       	ldd	r22, Y+4	; 0x04
    2c18:	7d 81       	ldd	r23, Y+5	; 0x05
    2c1a:	8d e3       	ldi	r24, 0x3D	; 61
    2c1c:	97 e0       	ldi	r25, 0x07	; 7
    2c1e:	4a e0       	ldi	r20, 0x0A	; 10
    2c20:	50 e0       	ldi	r21, 0x00	; 0
    2c22:	0e 94 24 26 	call	0x4c48	;  0x4c48
    2c26:	df 91       	pop	r29
    2c28:	cf 91       	pop	r28
    2c2a:	08 95       	ret
    2c2c:	2f 92       	push	r2
    2c2e:	3f 92       	push	r3
    2c30:	4f 92       	push	r4
    2c32:	5f 92       	push	r5
    2c34:	6f 92       	push	r6
    2c36:	7f 92       	push	r7
    2c38:	8f 92       	push	r8
    2c3a:	9f 92       	push	r9
    2c3c:	af 92       	push	r10
    2c3e:	bf 92       	push	r11
    2c40:	cf 92       	push	r12
    2c42:	df 92       	push	r13
    2c44:	ef 92       	push	r14
    2c46:	ff 92       	push	r15
    2c48:	0f 93       	push	r16
    2c4a:	1f 93       	push	r17
    2c4c:	df 93       	push	r29
    2c4e:	cf 93       	push	r28
    2c50:	cd b7       	in	r28, 0x3d	; 61
    2c52:	de b7       	in	r29, 0x3e	; 62
    2c54:	66 97       	sbiw	r28, 0x16	; 22
    2c56:	0f b6       	in	r0, 0x3f	; 63
    2c58:	f8 94       	cli
    2c5a:	de bf       	out	0x3e, r29	; 62
    2c5c:	0f be       	out	0x3f, r0	; 63
    2c5e:	cd bf       	out	0x3d, r28	; 61
    2c60:	6c 01       	movw	r12, r24
    2c62:	8d e3       	ldi	r24, 0x3D	; 61
    2c64:	97 e0       	ldi	r25, 0x07	; 7
    2c66:	62 e0       	ldi	r22, 0x02	; 2
    2c68:	71 e0       	ldi	r23, 0x01	; 1
    2c6a:	0e 94 27 27 	call	0x4e4e	;  0x4e4e
    2c6e:	c6 01       	movw	r24, r12
    2c70:	66 ea       	ldi	r22, 0xA6	; 166
    2c72:	70 e0       	ldi	r23, 0x00	; 0
    2c74:	4c e2       	ldi	r20, 0x2C	; 44
    2c76:	50 e0       	ldi	r21, 0x00	; 0
    2c78:	2c e0       	ldi	r18, 0x0C	; 12
    2c7a:	30 e0       	ldi	r19, 0x00	; 0
    2c7c:	98 df       	rcall	.-208    	;  0x2bae
    2c7e:	65 e0       	ldi	r22, 0x05	; 5
    2c80:	70 e0       	ldi	r23, 0x00	; 0
    2c82:	80 e0       	ldi	r24, 0x00	; 0
    2c84:	90 e0       	ldi	r25, 0x00	; 0
    2c86:	0e 94 08 28 	call	0x5010	;  0x5010
    2c8a:	c6 01       	movw	r24, r12
    2c8c:	66 ea       	ldi	r22, 0xA6	; 166
    2c8e:	70 e0       	ldi	r23, 0x00	; 0
    2c90:	4d e2       	ldi	r20, 0x2D	; 45
    2c92:	50 e0       	ldi	r21, 0x00	; 0
    2c94:	28 e0       	ldi	r18, 0x08	; 8
    2c96:	30 e0       	ldi	r19, 0x00	; 0
    2c98:	8a df       	rcall	.-236    	;  0x2bae
    2c9a:	65 e0       	ldi	r22, 0x05	; 5
    2c9c:	70 e0       	ldi	r23, 0x00	; 0
    2c9e:	80 e0       	ldi	r24, 0x00	; 0
    2ca0:	90 e0       	ldi	r25, 0x00	; 0
    2ca2:	0e 94 08 28 	call	0x5010	;  0x5010
    2ca6:	c6 01       	movw	r24, r12
    2ca8:	66 ea       	ldi	r22, 0xA6	; 166
    2caa:	70 e0       	ldi	r23, 0x00	; 0
    2cac:	41 e3       	ldi	r20, 0x31	; 49
    2cae:	50 e0       	ldi	r21, 0x00	; 0
    2cb0:	2b e0       	ldi	r18, 0x0B	; 11
    2cb2:	30 e0       	ldi	r19, 0x00	; 0
    2cb4:	7c df       	rcall	.-264    	;  0x2bae
    2cb6:	c6 01       	movw	r24, r12
    2cb8:	60 ed       	ldi	r22, 0xD0	; 208
    2cba:	70 e0       	ldi	r23, 0x00	; 0
    2cbc:	4e e3       	ldi	r20, 0x3E	; 62
    2cbe:	50 e0       	ldi	r21, 0x00	; 0
    2cc0:	20 e8       	ldi	r18, 0x80	; 128
    2cc2:	30 e0       	ldi	r19, 0x00	; 0
    2cc4:	74 df       	rcall	.-280    	;  0x2bae
    2cc6:	65 e0       	ldi	r22, 0x05	; 5
    2cc8:	70 e0       	ldi	r23, 0x00	; 0
    2cca:	80 e0       	ldi	r24, 0x00	; 0
    2ccc:	90 e0       	ldi	r25, 0x00	; 0
    2cce:	0e 94 08 28 	call	0x5010	;  0x5010
    2cd2:	c6 01       	movw	r24, r12
    2cd4:	60 ed       	ldi	r22, 0xD0	; 208
    2cd6:	70 e0       	ldi	r23, 0x00	; 0
    2cd8:	46 e1       	ldi	r20, 0x16	; 22
    2cda:	50 e0       	ldi	r21, 0x00	; 0
    2cdc:	28 e1       	ldi	r18, 0x18	; 24
    2cde:	30 e0       	ldi	r19, 0x00	; 0
    2ce0:	66 df       	rcall	.-308    	;  0x2bae
    2ce2:	65 e0       	ldi	r22, 0x05	; 5
    2ce4:	70 e0       	ldi	r23, 0x00	; 0
    2ce6:	80 e0       	ldi	r24, 0x00	; 0
    2ce8:	90 e0       	ldi	r25, 0x00	; 0
    2cea:	0e 94 08 28 	call	0x5010	;  0x5010
    2cee:	8d e3       	ldi	r24, 0x3D	; 61
    2cf0:	97 e0       	ldi	r25, 0x07	; 7
    2cf2:	6f e0       	ldi	r22, 0x0F	; 15
    2cf4:	71 e0       	ldi	r23, 0x01	; 1
    2cf6:	0e 94 27 27 	call	0x4e4e	;  0x4e4e
    2cfa:	c6 01       	movw	r24, r12
    2cfc:	60 ed       	ldi	r22, 0xD0	; 208
    2cfe:	70 e0       	ldi	r23, 0x00	; 0
    2d00:	45 e1       	ldi	r20, 0x15	; 21
    2d02:	50 e0       	ldi	r21, 0x00	; 0
    2d04:	20 e0       	ldi	r18, 0x00	; 0
    2d06:	30 e0       	ldi	r19, 0x00	; 0
    2d08:	52 df       	rcall	.-348    	;  0x2bae
    2d0a:	65 e0       	ldi	r22, 0x05	; 5
    2d0c:	70 e0       	ldi	r23, 0x00	; 0
    2d0e:	80 e0       	ldi	r24, 0x00	; 0
    2d10:	90 e0       	ldi	r25, 0x00	; 0
    2d12:	0e 94 08 28 	call	0x5010	;  0x5010
    2d16:	c6 01       	movw	r24, r12
    2d18:	60 ed       	ldi	r22, 0xD0	; 208
    2d1a:	70 e0       	ldi	r23, 0x00	; 0
    2d1c:	4e e3       	ldi	r20, 0x3E	; 62
    2d1e:	50 e0       	ldi	r21, 0x00	; 0
    2d20:	23 e0       	ldi	r18, 0x03	; 3
    2d22:	30 e0       	ldi	r19, 0x00	; 0
    2d24:	44 df       	rcall	.-376    	;  0x2bae
    2d26:	68 ee       	ldi	r22, 0xE8	; 232
    2d28:	73 e0       	ldi	r23, 0x03	; 3
    2d2a:	80 e0       	ldi	r24, 0x00	; 0
    2d2c:	90 e0       	ldi	r25, 0x00	; 0
    2d2e:	0e 94 08 28 	call	0x5010	;  0x5010
    2d32:	8d e3       	ldi	r24, 0x3D	; 61
    2d34:	97 e0       	ldi	r25, 0x07	; 7
    2d36:	6c e1       	ldi	r22, 0x1C	; 28
    2d38:	71 e0       	ldi	r23, 0x01	; 1
    2d3a:	0e 94 27 27 	call	0x4e4e	;  0x4e4e
    2d3e:	8c e3       	ldi	r24, 0x3C	; 60
    2d40:	60 e0       	ldi	r22, 0x00	; 0
    2d42:	4c e1       	ldi	r20, 0x1C	; 28
    2d44:	0e 94 8c 01 	call	0x318	;  0x318
    2d48:	8c e3       	ldi	r24, 0x3C	; 60
    2d4a:	61 e0       	ldi	r22, 0x01	; 1
    2d4c:	40 e6       	ldi	r20, 0x60	; 96
    2d4e:	0e 94 8c 01 	call	0x318	;  0x318
    2d52:	8c e3       	ldi	r24, 0x3C	; 60
    2d54:	62 e0       	ldi	r22, 0x02	; 2
    2d56:	40 e0       	ldi	r20, 0x00	; 0
    2d58:	0e 94 8c 01 	call	0x318	;  0x318
    2d5c:	8d e3       	ldi	r24, 0x3D	; 61
    2d5e:	97 e0       	ldi	r25, 0x07	; 7
    2d60:	69 e2       	ldi	r22, 0x29	; 41
    2d62:	71 e0       	ldi	r23, 0x01	; 1
    2d64:	0e 94 27 27 	call	0x4e4e	;  0x4e4e
    2d68:	1a 82       	std	Y+2, r1	; 0x02
    2d6a:	19 82       	std	Y+1, r1	; 0x01
    2d6c:	1c 82       	std	Y+4, r1	; 0x04
    2d6e:	1b 82       	std	Y+3, r1	; 0x03
    2d70:	1e 82       	std	Y+6, r1	; 0x06
    2d72:	1d 82       	std	Y+5, r1	; 0x05
    2d74:	18 86       	std	Y+8, r1	; 0x08
    2d76:	1f 82       	std	Y+7, r1	; 0x07
    2d78:	1a 86       	std	Y+10, r1	; 0x0a
    2d7a:	19 86       	std	Y+9, r1	; 0x09
    2d7c:	1c 86       	std	Y+12, r1	; 0x0c
    2d7e:	1b 86       	std	Y+11, r1	; 0x0b
    2d80:	1e 86       	std	Y+14, r1	; 0x0e
    2d82:	1d 86       	std	Y+13, r1	; 0x0d
    2d84:	18 8a       	std	Y+16, r1	; 0x10
    2d86:	1f 86       	std	Y+15, r1	; 0x0f
    2d88:	1a 8a       	std	Y+18, r1	; 0x12
    2d8a:	19 8a       	std	Y+17, r1	; 0x11
    2d8c:	00 e0       	ldi	r16, 0x00	; 0
    2d8e:	10 e0       	ldi	r17, 0x00	; 0
    2d90:	4e 01       	movw	r8, r28
    2d92:	08 94       	sec
    2d94:	81 1c       	adc	r8, r1
    2d96:	91 1c       	adc	r9, r1
    2d98:	27 e0       	ldi	r18, 0x07	; 7
    2d9a:	a2 2e       	mov	r10, r18
    2d9c:	b1 2c       	mov	r11, r1
    2d9e:	ac 0e       	add	r10, r28
    2da0:	bd 1e       	adc	r11, r29
    2da2:	9d e0       	ldi	r25, 0x0D	; 13
    2da4:	e9 2e       	mov	r14, r25
    2da6:	f1 2c       	mov	r15, r1
    2da8:	ec 0e       	add	r14, r28
    2daa:	fd 1e       	adc	r15, r29
    2dac:	c6 01       	movw	r24, r12
    2dae:	b4 01       	movw	r22, r8
    2db0:	36 dc       	rcall	.-1940   	;  0x261e
    2db2:	c6 01       	movw	r24, r12
    2db4:	b5 01       	movw	r22, r10
    2db6:	e5 db       	rcall	.-2102   	;  0x2582
    2db8:	c6 01       	movw	r24, r12
    2dba:	b7 01       	movw	r22, r14
    2dbc:	7e dc       	rcall	.-1796   	;  0x26ba
    2dbe:	61 e0       	ldi	r22, 0x01	; 1
    2dc0:	70 e0       	ldi	r23, 0x00	; 0
    2dc2:	80 e0       	ldi	r24, 0x00	; 0
    2dc4:	90 e0       	ldi	r25, 0x00	; 0
    2dc6:	0e 94 08 28 	call	0x5010	;  0x5010
    2dca:	0f 5f       	subi	r16, 0xFF	; 255
    2dcc:	1f 4f       	sbci	r17, 0xFF	; 255
    2dce:	00 34       	cpi	r16, 0x40	; 64
    2dd0:	11 05       	cpc	r17, r1
    2dd2:	61 f7       	brne	.-40     	;  0x2dac
    2dd4:	1e 8a       	std	Y+22, r1	; 0x16
    2dd6:	1d 8a       	std	Y+21, r1	; 0x15
    2dd8:	66 24       	eor	r6, r6
    2dda:	77 24       	eor	r7, r7
    2ddc:	1c 8a       	std	Y+20, r1	; 0x14
    2dde:	1b 8a       	std	Y+19, r1	; 0x13
    2de0:	22 24       	eor	r2, r2
    2de2:	33 24       	eor	r3, r3
    2de4:	aa 24       	eor	r10, r10
    2de6:	bb 24       	eor	r11, r11
    2de8:	88 24       	eor	r8, r8
    2dea:	99 24       	eor	r9, r9
    2dec:	44 24       	eor	r4, r4
    2dee:	55 24       	eor	r5, r5
    2df0:	00 e0       	ldi	r16, 0x00	; 0
    2df2:	10 e0       	ldi	r17, 0x00	; 0
    2df4:	ee 24       	eor	r14, r14
    2df6:	ff 24       	eor	r15, r15
    2df8:	c6 01       	movw	r24, r12
    2dfa:	be 01       	movw	r22, r28
    2dfc:	6f 5f       	subi	r22, 0xFF	; 255
    2dfe:	7f 4f       	sbci	r23, 0xFF	; 255
    2e00:	0e dc       	rcall	.-2020   	;  0x261e
    2e02:	89 81       	ldd	r24, Y+1	; 0x01
    2e04:	9a 81       	ldd	r25, Y+2	; 0x02
    2e06:	08 0f       	add	r16, r24
    2e08:	19 1f       	adc	r17, r25
    2e0a:	8b 81       	ldd	r24, Y+3	; 0x03
    2e0c:	9c 81       	ldd	r25, Y+4	; 0x04
    2e0e:	e8 0e       	add	r14, r24
    2e10:	f9 1e       	adc	r15, r25
    2e12:	8d 81       	ldd	r24, Y+5	; 0x05
    2e14:	9e 81       	ldd	r25, Y+6	; 0x06
    2e16:	68 0e       	add	r6, r24
    2e18:	79 1e       	adc	r7, r25
    2e1a:	c6 01       	movw	r24, r12
    2e1c:	be 01       	movw	r22, r28
    2e1e:	69 5f       	subi	r22, 0xF9	; 249
    2e20:	7f 4f       	sbci	r23, 0xFF	; 255
    2e22:	af db       	rcall	.-2210   	;  0x2582
    2e24:	8f 81       	ldd	r24, Y+7	; 0x07
    2e26:	98 85       	ldd	r25, Y+8	; 0x08
    2e28:	a8 0e       	add	r10, r24
    2e2a:	b9 1e       	adc	r11, r25
    2e2c:	89 85       	ldd	r24, Y+9	; 0x09
    2e2e:	9a 85       	ldd	r25, Y+10	; 0x0a
    2e30:	88 0e       	add	r8, r24
    2e32:	99 1e       	adc	r9, r25
    2e34:	8b 85       	ldd	r24, Y+11	; 0x0b
    2e36:	9c 85       	ldd	r25, Y+12	; 0x0c
    2e38:	48 0e       	add	r4, r24
    2e3a:	59 1e       	adc	r5, r25
    2e3c:	c6 01       	movw	r24, r12
    2e3e:	be 01       	movw	r22, r28
    2e40:	63 5f       	subi	r22, 0xF3	; 243
    2e42:	7f 4f       	sbci	r23, 0xFF	; 255
    2e44:	3a dc       	rcall	.-1932   	;  0x26ba
    2e46:	8d 85       	ldd	r24, Y+13	; 0x0d
    2e48:	9e 85       	ldd	r25, Y+14	; 0x0e
    2e4a:	2b 89       	ldd	r18, Y+19	; 0x13
    2e4c:	3c 89       	ldd	r19, Y+20	; 0x14
    2e4e:	28 0f       	add	r18, r24
    2e50:	39 1f       	adc	r19, r25
    2e52:	3c 8b       	std	Y+20, r19	; 0x14
    2e54:	2b 8b       	std	Y+19, r18	; 0x13
    2e56:	8f 85       	ldd	r24, Y+15	; 0x0f
    2e58:	98 89       	ldd	r25, Y+16	; 0x10
    2e5a:	28 0e       	add	r2, r24
    2e5c:	39 1e       	adc	r3, r25
    2e5e:	61 e0       	ldi	r22, 0x01	; 1
    2e60:	70 e0       	ldi	r23, 0x00	; 0
    2e62:	80 e0       	ldi	r24, 0x00	; 0
    2e64:	90 e0       	ldi	r25, 0x00	; 0
    2e66:	0e 94 08 28 	call	0x5010	;  0x5010
    2e6a:	8d 89       	ldd	r24, Y+21	; 0x15
    2e6c:	9e 89       	ldd	r25, Y+22	; 0x16
    2e6e:	01 96       	adiw	r24, 0x01	; 1
    2e70:	9e 8b       	std	Y+22, r25	; 0x16
    2e72:	8d 8b       	std	Y+21, r24	; 0x15
    2e74:	80 34       	cpi	r24, 0x40	; 64
    2e76:	91 05       	cpc	r25, r1
    2e78:	09 f0       	breq	.+2      	;  0x2e7c
    2e7a:	be cf       	rjmp	.-132    	;  0x2df8
    2e7c:	86 e0       	ldi	r24, 0x06	; 6
    2e7e:	15 95       	asr	r17
    2e80:	07 95       	ror	r16
    2e82:	8a 95       	dec	r24
    2e84:	e1 f7       	brne	.-8      	;  0x2e7e
    2e86:	f6 01       	movw	r30, r12
    2e88:	13 83       	std	Z+3, r17	; 0x03
    2e8a:	02 83       	std	Z+2, r16	; 0x02
    2e8c:	16 e0       	ldi	r17, 0x06	; 6
    2e8e:	f5 94       	asr	r15
    2e90:	e7 94       	ror	r14
    2e92:	1a 95       	dec	r17
    2e94:	e1 f7       	brne	.-8      	;  0x2e8e
    2e96:	f5 82       	std	Z+5, r15	; 0x05
    2e98:	e4 82       	std	Z+4, r14	; 0x04
    2e9a:	b6 e0       	ldi	r27, 0x06	; 6
    2e9c:	75 94       	asr	r7
    2e9e:	67 94       	ror	r6
    2ea0:	ba 95       	dec	r27
    2ea2:	e1 f7       	brne	.-8      	;  0x2e9c
    2ea4:	77 82       	std	Z+7, r7	; 0x07
    2ea6:	66 82       	std	Z+6, r6	; 0x06
    2ea8:	a6 e0       	ldi	r26, 0x06	; 6
    2eaa:	b5 94       	asr	r11
    2eac:	a7 94       	ror	r10
    2eae:	aa 95       	dec	r26
    2eb0:	e1 f7       	brne	.-8      	;  0x2eaa
    2eb2:	b1 86       	std	Z+9, r11	; 0x09
    2eb4:	a0 86       	std	Z+8, r10	; 0x08
    2eb6:	76 e0       	ldi	r23, 0x06	; 6
    2eb8:	95 94       	asr	r9
    2eba:	87 94       	ror	r8
    2ebc:	7a 95       	dec	r23
    2ebe:	e1 f7       	brne	.-8      	;  0x2eb8
    2ec0:	93 86       	std	Z+11, r9	; 0x0b
    2ec2:	82 86       	std	Z+10, r8	; 0x0a
    2ec4:	66 e0       	ldi	r22, 0x06	; 6
    2ec6:	55 94       	asr	r5
    2ec8:	47 94       	ror	r4
    2eca:	6a 95       	dec	r22
    2ecc:	e1 f7       	brne	.-8      	;  0x2ec6
    2ece:	55 86       	std	Z+13, r5	; 0x0d
    2ed0:	44 86       	std	Z+12, r4	; 0x0c
    2ed2:	56 e0       	ldi	r21, 0x06	; 6
    2ed4:	35 94       	asr	r3
    2ed6:	27 94       	ror	r2
    2ed8:	5a 95       	dec	r21
    2eda:	e1 f7       	brne	.-8      	;  0x2ed4
    2edc:	b1 01       	movw	r22, r2
    2ede:	88 27       	eor	r24, r24
    2ee0:	77 fd       	sbrc	r23, 7
    2ee2:	80 95       	com	r24
    2ee4:	98 2f       	mov	r25, r24
    2ee6:	0e 94 d7 2b 	call	0x57ae	;  0x57ae
    2eea:	7b 01       	movw	r14, r22
    2eec:	8c 01       	movw	r16, r24
    2eee:	2b 89       	ldd	r18, Y+19	; 0x13
    2ef0:	3c 89       	ldd	r19, Y+20	; 0x14
    2ef2:	46 e0       	ldi	r20, 0x06	; 6
    2ef4:	35 95       	asr	r19
    2ef6:	27 95       	ror	r18
    2ef8:	4a 95       	dec	r20
    2efa:	e1 f7       	brne	.-8      	;  0x2ef4
    2efc:	b9 01       	movw	r22, r18
    2efe:	88 27       	eor	r24, r24
    2f00:	77 fd       	sbrc	r23, 7
    2f02:	80 95       	com	r24
    2f04:	98 2f       	mov	r25, r24
    2f06:	0e 94 d7 2b 	call	0x57ae	;  0x57ae
    2f0a:	9b 01       	movw	r18, r22
    2f0c:	ac 01       	movw	r20, r24
    2f0e:	c8 01       	movw	r24, r16
    2f10:	b7 01       	movw	r22, r14
    2f12:	0e 94 e2 2a 	call	0x55c4	;  0x55c4
    2f16:	86 01       	movw	r16, r12
    2f18:	02 5e       	subi	r16, 0xE2	; 226
    2f1a:	1d 4f       	sbci	r17, 0xFD	; 253
    2f1c:	f8 01       	movw	r30, r16
    2f1e:	60 83       	st	Z, r22
    2f20:	71 83       	std	Z+1, r23	; 0x01
    2f22:	82 83       	std	Z+2, r24	; 0x02
    2f24:	93 83       	std	Z+3, r25	; 0x03
    2f26:	c6 01       	movw	r24, r12
    2f28:	be 01       	movw	r22, r28
    2f2a:	69 5f       	subi	r22, 0xF9	; 249
    2f2c:	7f 4f       	sbci	r23, 0xFF	; 255
    2f2e:	c5 db       	rcall	.-2166   	;  0x26ba
    2f30:	c6 01       	movw	r24, r12
    2f32:	be 01       	movw	r22, r28
    2f34:	69 5f       	subi	r22, 0xF9	; 249
    2f36:	7f 4f       	sbci	r23, 0xFF	; 255
    2f38:	24 db       	rcall	.-2488   	;  0x2582
    2f3a:	c6 01       	movw	r24, r12
    2f3c:	0e 94 f1 05 	call	0xbe2	;  0xbe2
    2f40:	c6 01       	movw	r24, r12
    2f42:	f6 db       	rcall	.-2068   	;  0x2730
    2f44:	c6 01       	movw	r24, r12
    2f46:	88 50       	subi	r24, 0x08	; 8
    2f48:	9e 4f       	sbci	r25, 0xFE	; 254
    2f4a:	67 e3       	ldi	r22, 0x37	; 55
    2f4c:	71 e0       	ldi	r23, 0x01	; 1
    2f4e:	3d de       	rcall	.-902    	;  0x2bca
    2f50:	c6 01       	movw	r24, r12
    2f52:	82 50       	subi	r24, 0x02	; 2
    2f54:	9e 4f       	sbci	r25, 0xFE	; 254
    2f56:	6d e3       	ldi	r22, 0x3D	; 61
    2f58:	71 e0       	ldi	r23, 0x01	; 1
    2f5a:	37 de       	rcall	.-914    	;  0x2bca
    2f5c:	c6 01       	movw	r24, r12
    2f5e:	8c 5f       	subi	r24, 0xFC	; 252
    2f60:	9d 4f       	sbci	r25, 0xFD	; 253
    2f62:	64 e4       	ldi	r22, 0x44	; 68
    2f64:	71 e0       	ldi	r23, 0x01	; 1
    2f66:	31 de       	rcall	.-926    	;  0x2bca
    2f68:	c6 01       	movw	r24, r12
    2f6a:	86 5f       	subi	r24, 0xF6	; 246
    2f6c:	9d 4f       	sbci	r25, 0xFD	; 253
    2f6e:	6a e4       	ldi	r22, 0x4A	; 74
    2f70:	71 e0       	ldi	r23, 0x01	; 1
    2f72:	2b de       	rcall	.-938    	;  0x2bca
    2f74:	c6 01       	movw	r24, r12
    2f76:	80 5f       	subi	r24, 0xF0	; 240
    2f78:	9d 4f       	sbci	r25, 0xFD	; 253
    2f7a:	62 e5       	ldi	r22, 0x52	; 82
    2f7c:	71 e0       	ldi	r23, 0x01	; 1
    2f7e:	25 de       	rcall	.-950    	;  0x2bca
    2f80:	8d e3       	ldi	r24, 0x3D	; 61
    2f82:	97 e0       	ldi	r25, 0x07	; 7
    2f84:	68 e5       	ldi	r22, 0x58	; 88
    2f86:	71 e0       	ldi	r23, 0x01	; 1
    2f88:	0e 94 41 26 	call	0x4c82	;  0x4c82
    2f8c:	8d e3       	ldi	r24, 0x3D	; 61
    2f8e:	97 e0       	ldi	r25, 0x07	; 7
    2f90:	62 e6       	ldi	r22, 0x62	; 98
    2f92:	71 e0       	ldi	r23, 0x01	; 1
    2f94:	0e 94 41 26 	call	0x4c82	;  0x4c82
    2f98:	26 e1       	ldi	r18, 0x16	; 22
    2f9a:	32 e0       	ldi	r19, 0x02	; 2
    2f9c:	c2 0e       	add	r12, r18
    2f9e:	d3 1e       	adc	r13, r19
    2fa0:	f6 01       	movw	r30, r12
    2fa2:	61 91       	ld	r22, Z+
    2fa4:	71 91       	ld	r23, Z+
    2fa6:	6f 01       	movw	r12, r30
    2fa8:	8d e3       	ldi	r24, 0x3D	; 61
    2faa:	97 e0       	ldi	r25, 0x07	; 7
    2fac:	4a e0       	ldi	r20, 0x0A	; 10
    2fae:	50 e0       	ldi	r21, 0x00	; 0
    2fb0:	0e 94 12 26 	call	0x4c24	;  0x4c24
    2fb4:	8d e3       	ldi	r24, 0x3D	; 61
    2fb6:	97 e0       	ldi	r25, 0x07	; 7
    2fb8:	6a e6       	ldi	r22, 0x6A	; 106
    2fba:	71 e0       	ldi	r23, 0x01	; 1
    2fbc:	0e 94 41 26 	call	0x4c82	;  0x4c82
    2fc0:	f6 01       	movw	r30, r12
    2fc2:	61 91       	ld	r22, Z+
    2fc4:	71 91       	ld	r23, Z+
    2fc6:	6f 01       	movw	r12, r30
    2fc8:	8d e3       	ldi	r24, 0x3D	; 61
    2fca:	97 e0       	ldi	r25, 0x07	; 7
    2fcc:	4a e0       	ldi	r20, 0x0A	; 10
    2fce:	50 e0       	ldi	r21, 0x00	; 0
    2fd0:	0e 94 12 26 	call	0x4c24	;  0x4c24
    2fd4:	8d e3       	ldi	r24, 0x3D	; 61
    2fd6:	97 e0       	ldi	r25, 0x07	; 7
    2fd8:	65 e7       	ldi	r22, 0x75	; 117
    2fda:	71 e0       	ldi	r23, 0x01	; 1
    2fdc:	0e 94 41 26 	call	0x4c82	;  0x4c82
    2fe0:	f8 01       	movw	r30, r16
    2fe2:	40 81       	ld	r20, Z
    2fe4:	51 81       	ldd	r21, Z+1	; 0x01
    2fe6:	62 81       	ldd	r22, Z+2	; 0x02
    2fe8:	73 81       	ldd	r23, Z+3	; 0x03
    2fea:	8d e3       	ldi	r24, 0x3D	; 61
    2fec:	97 e0       	ldi	r25, 0x07	; 7
    2fee:	22 e0       	ldi	r18, 0x02	; 2
    2ff0:	30 e0       	ldi	r19, 0x00	; 0
    2ff2:	0e 94 14 27 	call	0x4e28	;  0x4e28
    2ff6:	8d e3       	ldi	r24, 0x3D	; 61
    2ff8:	97 e0       	ldi	r25, 0x07	; 7
    2ffa:	6f e7       	ldi	r22, 0x7F	; 127
    2ffc:	71 e0       	ldi	r23, 0x01	; 1
    2ffe:	0e 94 41 26 	call	0x4c82	;  0x4c82
    3002:	f6 01       	movw	r30, r12
    3004:	40 81       	ld	r20, Z
    3006:	51 81       	ldd	r21, Z+1	; 0x01
    3008:	62 81       	ldd	r22, Z+2	; 0x02
    300a:	73 81       	ldd	r23, Z+3	; 0x03
    300c:	8d e3       	ldi	r24, 0x3D	; 61
    300e:	97 e0       	ldi	r25, 0x07	; 7
    3010:	22 e0       	ldi	r18, 0x02	; 2
    3012:	30 e0       	ldi	r19, 0x00	; 0
    3014:	0e 94 14 27 	call	0x4e28	;  0x4e28
    3018:	8d e3       	ldi	r24, 0x3D	; 61
    301a:	97 e0       	ldi	r25, 0x07	; 7
    301c:	69 e8       	ldi	r22, 0x89	; 137
    301e:	71 e0       	ldi	r23, 0x01	; 1
    3020:	0e 94 41 26 	call	0x4c82	;  0x4c82
    3024:	28 e0       	ldi	r18, 0x08	; 8
    3026:	30 e0       	ldi	r19, 0x00	; 0
    3028:	c2 0e       	add	r12, r18
    302a:	d3 1e       	adc	r13, r19
    302c:	f6 01       	movw	r30, r12
    302e:	40 81       	ld	r20, Z
    3030:	51 81       	ldd	r21, Z+1	; 0x01
    3032:	62 81       	ldd	r22, Z+2	; 0x02
    3034:	73 81       	ldd	r23, Z+3	; 0x03
    3036:	8d e3       	ldi	r24, 0x3D	; 61
    3038:	97 e0       	ldi	r25, 0x07	; 7
    303a:	22 e0       	ldi	r18, 0x02	; 2
    303c:	30 e0       	ldi	r19, 0x00	; 0
    303e:	0e 94 16 27 	call	0x4e2c	;  0x4e2c
    3042:	8d e3       	ldi	r24, 0x3D	; 61
    3044:	97 e0       	ldi	r25, 0x07	; 7
    3046:	61 e9       	ldi	r22, 0x91	; 145
    3048:	71 e0       	ldi	r23, 0x01	; 1
    304a:	0e 94 27 27 	call	0x4e4e	;  0x4e4e
    304e:	66 96       	adiw	r28, 0x16	; 22
    3050:	0f b6       	in	r0, 0x3f	; 63
    3052:	f8 94       	cli
    3054:	de bf       	out	0x3e, r29	; 62
    3056:	0f be       	out	0x3f, r0	; 63
    3058:	cd bf       	out	0x3d, r28	; 61
    305a:	cf 91       	pop	r28
    305c:	df 91       	pop	r29
    305e:	1f 91       	pop	r17
    3060:	0f 91       	pop	r16
    3062:	ff 90       	pop	r15
    3064:	ef 90       	pop	r14
    3066:	df 90       	pop	r13
    3068:	cf 90       	pop	r12
    306a:	bf 90       	pop	r11
    306c:	af 90       	pop	r10
    306e:	9f 90       	pop	r9
    3070:	8f 90       	pop	r8
    3072:	7f 90       	pop	r7
    3074:	6f 90       	pop	r6
    3076:	5f 90       	pop	r5
    3078:	4f 90       	pop	r4
    307a:	3f 90       	pop	r3
    307c:	2f 90       	pop	r2
    307e:	08 95       	ret
    3080:	8d e0       	ldi	r24, 0x0D	; 13
    3082:	61 e0       	ldi	r22, 0x01	; 1
    3084:	0e 94 a6 28 	call	0x514c	;  0x514c
    3088:	8d e0       	ldi	r24, 0x0D	; 13
    308a:	60 e0       	ldi	r22, 0x00	; 0
    308c:	0e 94 e5 28 	call	0x51ca	;  0x51ca
    3090:	0e 94 0b 01 	call	0x216	;  0x216
    3094:	61 15       	cp	r22, r1
    3096:	71 05       	cpc	r23, r1
    3098:	81 05       	cpc	r24, r1
    309a:	91 05       	cpc	r25, r1
    309c:	c9 f3       	breq	.-14     	;  0x3090
    309e:	6e d1       	rcall	.+732    	;  0x337c
    30a0:	8d e3       	ldi	r24, 0x3D	; 61
    30a2:	97 e0       	ldi	r25, 0x07	; 7
    30a4:	40 e8       	ldi	r20, 0x80	; 128
    30a6:	55 e2       	ldi	r21, 0x25	; 37
    30a8:	60 e0       	ldi	r22, 0x00	; 0
    30aa:	70 e0       	ldi	r23, 0x00	; 0
    30ac:	0e 94 17 23 	call	0x462e	;  0x462e
    30b0:	88 e0       	ldi	r24, 0x08	; 8
    30b2:	61 e0       	ldi	r22, 0x01	; 1
    30b4:	0e 94 a6 28 	call	0x514c	;  0x514c
    30b8:	8b e0       	ldi	r24, 0x0B	; 11
    30ba:	61 e0       	ldi	r22, 0x01	; 1
    30bc:	0e 94 a6 28 	call	0x514c	;  0x514c
    30c0:	8b e0       	ldi	r24, 0x0B	; 11
    30c2:	60 e0       	ldi	r22, 0x00	; 0
    30c4:	0e 94 e5 28 	call	0x51ca	;  0x51ca
    30c8:	88 e0       	ldi	r24, 0x08	; 8
    30ca:	61 e0       	ldi	r22, 0x01	; 1
    30cc:	0e 94 e5 28 	call	0x51ca	;  0x51ca
    30d0:	81 e0       	ldi	r24, 0x01	; 1
    30d2:	90 e0       	ldi	r25, 0x00	; 0
    30d4:	0e 94 61 28 	call	0x50c2	;  0x50c2
    30d8:	0e 94 e2 27 	call	0x4fc4	;  0x4fc4
    30dc:	0e 94 d4 27 	call	0x4fa8	;  0x4fa8
    30e0:	61 e0       	ldi	r22, 0x01	; 1
    30e2:	70 e0       	ldi	r23, 0x00	; 0
    30e4:	80 e0       	ldi	r24, 0x00	; 0
    30e6:	90 e0       	ldi	r25, 0x00	; 0
    30e8:	0e 94 08 28 	call	0x5010	;  0x5010
    30ec:	8d e3       	ldi	r24, 0x3D	; 61
    30ee:	97 e0       	ldi	r25, 0x07	; 7
    30f0:	61 ea       	ldi	r22, 0xA1	; 161
    30f2:	71 e0       	ldi	r23, 0x01	; 1
    30f4:	0e 94 27 27 	call	0x4e4e	;  0x4e4e
    30f8:	1f d3       	rcall	.+1598   	;  0x3738
    30fa:	82 e0       	ldi	r24, 0x02	; 2
    30fc:	61 e0       	ldi	r22, 0x01	; 1
    30fe:	0e 94 a6 28 	call	0x514c	;  0x514c
    3102:	82 e0       	ldi	r24, 0x02	; 2
    3104:	61 e0       	ldi	r22, 0x01	; 1
    3106:	0e 94 e5 28 	call	0x51ca	;  0x51ca
    310a:	8d e3       	ldi	r24, 0x3D	; 61
    310c:	97 e0       	ldi	r25, 0x07	; 7
    310e:	62 eb       	ldi	r22, 0xB2	; 178
    3110:	71 e0       	ldi	r23, 0x01	; 1
    3112:	0e 94 27 27 	call	0x4e4e	;  0x4e4e
    3116:	80 e6       	ldi	r24, 0x60	; 96
    3118:	95 e0       	ldi	r25, 0x05	; 5
    311a:	0e 94 c0 0c 	call	0x1980	;  0x1980
    311e:	61 e0       	ldi	r22, 0x01	; 1
    3120:	70 e0       	ldi	r23, 0x00	; 0
    3122:	80 e0       	ldi	r24, 0x00	; 0
    3124:	90 e0       	ldi	r25, 0x00	; 0
    3126:	0e 94 08 28 	call	0x5010	;  0x5010
    312a:	36 d3       	rcall	.+1644   	;  0x3798
    312c:	61 e0       	ldi	r22, 0x01	; 1
    312e:	70 e0       	ldi	r23, 0x00	; 0
    3130:	80 e0       	ldi	r24, 0x00	; 0
    3132:	90 e0       	ldi	r25, 0x00	; 0
    3134:	0e 94 08 28 	call	0x5010	;  0x5010
    3138:	8a e0       	ldi	r24, 0x0A	; 10
    313a:	80 93 b8 00 	sts	0x00B8, r24
    313e:	86 e0       	ldi	r24, 0x06	; 6
    3140:	61 e0       	ldi	r22, 0x01	; 1
    3142:	0e 94 a6 28 	call	0x514c	;  0x514c
    3146:	86 e0       	ldi	r24, 0x06	; 6
    3148:	61 e0       	ldi	r22, 0x01	; 1
    314a:	0e 94 e5 28 	call	0x51ca	;  0x51ca
    314e:	8d e3       	ldi	r24, 0x3D	; 61
    3150:	97 e0       	ldi	r25, 0x07	; 7
    3152:	6d eb       	ldi	r22, 0xBD	; 189
    3154:	71 e0       	ldi	r23, 0x01	; 1
    3156:	0e 94 27 27 	call	0x4e4e	;  0x4e4e
    315a:	88 ee       	ldi	r24, 0xE8	; 232
    315c:	66 e0       	ldi	r22, 0x06	; 6
    315e:	4f e0       	ldi	r20, 0x0F	; 15
    3160:	0e 94 8c 01 	call	0x318	;  0x318
    3164:	88 ee       	ldi	r24, 0xE8	; 232
    3166:	67 e0       	ldi	r22, 0x07	; 7
    3168:	4c e0       	ldi	r20, 0x0C	; 12
    316a:	0e 94 8c 01 	call	0x318	;  0x318
    316e:	88 ee       	ldi	r24, 0xE8	; 232
    3170:	68 e0       	ldi	r22, 0x08	; 8
    3172:	47 e0       	ldi	r20, 0x07	; 7
    3174:	0e 94 8c 01 	call	0x318	;  0x318
    3178:	88 ee       	ldi	r24, 0xE8	; 232
    317a:	69 e0       	ldi	r22, 0x09	; 9
    317c:	45 e0       	ldi	r20, 0x05	; 5
    317e:	0e 94 8c 01 	call	0x318	;  0x318
    3182:	88 ee       	ldi	r24, 0xE8	; 232
    3184:	6a e0       	ldi	r22, 0x0A	; 10
    3186:	49 ec       	ldi	r20, 0xC9	; 201
    3188:	0e 94 8c 01 	call	0x318	;  0x318
    318c:	88 ee       	ldi	r24, 0xE8	; 232
    318e:	6b e0       	ldi	r22, 0x0B	; 11
    3190:	40 e0       	ldi	r20, 0x00	; 0
    3192:	0e 94 8c 01 	call	0x318	;  0x318
    3196:	88 ee       	ldi	r24, 0xE8	; 232
    3198:	6c e0       	ldi	r22, 0x0C	; 12
    319a:	49 ec       	ldi	r20, 0xC9	; 201
    319c:	0e 94 8c 01 	call	0x318	;  0x318
    31a0:	88 ee       	ldi	r24, 0xE8	; 232
    31a2:	6d e0       	ldi	r22, 0x0D	; 13
    31a4:	40 e0       	ldi	r20, 0x00	; 0
    31a6:	0e 94 8c 01 	call	0x318	;  0x318
    31aa:	88 ee       	ldi	r24, 0xE8	; 232
    31ac:	6e e0       	ldi	r22, 0x0E	; 14
    31ae:	49 ec       	ldi	r20, 0xC9	; 201
    31b0:	0e 94 8c 01 	call	0x318	;  0x318
    31b4:	88 ee       	ldi	r24, 0xE8	; 232
    31b6:	6f e0       	ldi	r22, 0x0F	; 15
    31b8:	40 e0       	ldi	r20, 0x00	; 0
    31ba:	0e 94 8c 01 	call	0x318	;  0x318
    31be:	88 ee       	ldi	r24, 0xE8	; 232
    31c0:	60 e1       	ldi	r22, 0x10	; 16
    31c2:	47 ec       	ldi	r20, 0xC7	; 199
    31c4:	0e 94 8c 01 	call	0x318	;  0x318
    31c8:	88 ee       	ldi	r24, 0xE8	; 232
    31ca:	61 e1       	ldi	r22, 0x11	; 17
    31cc:	40 e0       	ldi	r20, 0x00	; 0
    31ce:	0e 94 8c 01 	call	0x318	;  0x318
    31d2:	8d e3       	ldi	r24, 0x3D	; 61
    31d4:	97 e0       	ldi	r25, 0x07	; 7
    31d6:	6c ec       	ldi	r22, 0xCC	; 204
    31d8:	71 e0       	ldi	r23, 0x01	; 1
    31da:	0e 94 27 27 	call	0x4e4e	;  0x4e4e
    31de:	82 e2       	ldi	r24, 0x22	; 34
    31e0:	93 e0       	ldi	r25, 0x03	; 3
    31e2:	24 dd       	rcall	.-1464   	;  0x2c2c
    31e4:	10 92 22 03 	sts	0x0322, r1
    31e8:	8d e3       	ldi	r24, 0x3D	; 61
    31ea:	97 e0       	ldi	r25, 0x07	; 7
    31ec:	65 ed       	ldi	r22, 0xD5	; 213
    31ee:	71 e0       	ldi	r23, 0x01	; 1
    31f0:	0e 94 27 27 	call	0x4e4e	;  0x4e4e
    31f4:	8d e3       	ldi	r24, 0x3D	; 61
    31f6:	97 e0       	ldi	r25, 0x07	; 7
    31f8:	6b ed       	ldi	r22, 0xDB	; 219
    31fa:	71 e0       	ldi	r23, 0x01	; 1
    31fc:	0e 94 27 27 	call	0x4e4e	;  0x4e4e
    3200:	88 e3       	ldi	r24, 0x38	; 56
    3202:	96 e0       	ldi	r25, 0x06	; 6
    3204:	65 e0       	ldi	r22, 0x05	; 5
    3206:	70 e0       	ldi	r23, 0x00	; 0
    3208:	5b d4       	rcall	.+2230   	;  0x3ac0
    320a:	88 e3       	ldi	r24, 0x38	; 56
    320c:	96 e0       	ldi	r25, 0x06	; 6
    320e:	6e e0       	ldi	r22, 0x0E	; 14
    3210:	79 e1       	ldi	r23, 0x19	; 25
    3212:	b4 d3       	rcall	.+1896   	;  0x397c
    3214:	8d e0       	ldi	r24, 0x0D	; 13
    3216:	61 e0       	ldi	r22, 0x01	; 1
    3218:	0c 94 e5 28 	jmp	0x51ca	;  0x51ca
    321c:	af 92       	push	r10
    321e:	bf 92       	push	r11
    3220:	cf 92       	push	r12
    3222:	df 92       	push	r13
    3224:	ef 92       	push	r14
    3226:	ff 92       	push	r15
    3228:	0f 93       	push	r16
    322a:	1f 93       	push	r17
    322c:	80 91 3a 05 	lds	r24, 0x053A
    3230:	80 93 80 05 	sts	0x0580, r24
    3234:	80 91 38 05 	lds	r24, 0x0538
    3238:	80 93 81 05 	sts	0x0581, r24
    323c:	00 d0       	rcall	.+0      	;  0x323e
    323e:	00 d0       	rcall	.+0      	;  0x3240
    3240:	0d b7       	in	r16, 0x3d	; 61
    3242:	1e b7       	in	r17, 0x3e	; 62
    3244:	0f 5f       	subi	r16, 0xFF	; 255
    3246:	1f 4f       	sbci	r17, 0xFF	; 255
    3248:	60 91 3c 05 	lds	r22, 0x053C
    324c:	70 91 3d 05 	lds	r23, 0x053D
    3250:	80 91 3e 05 	lds	r24, 0x053E
    3254:	90 91 3f 05 	lds	r25, 0x053F
    3258:	20 91 40 05 	lds	r18, 0x0540
    325c:	30 91 41 05 	lds	r19, 0x0541
    3260:	40 91 42 05 	lds	r20, 0x0542
    3264:	50 91 43 05 	lds	r21, 0x0543
    3268:	0e 94 6e 2a 	call	0x54dc	;  0x54dc
    326c:	0e 94 a4 2b 	call	0x5748	;  0x5748
    3270:	2f ef       	ldi	r18, 0xFF	; 255
    3272:	30 e0       	ldi	r19, 0x00	; 0
    3274:	40 e0       	ldi	r20, 0x00	; 0
    3276:	50 e0       	ldi	r21, 0x00	; 0
    3278:	f8 01       	movw	r30, r16
    327a:	20 83       	st	Z, r18
    327c:	31 83       	std	Z+1, r19	; 0x01
    327e:	42 83       	std	Z+2, r20	; 0x02
    3280:	53 83       	std	Z+3, r21	; 0x03
    3282:	20 e0       	ldi	r18, 0x00	; 0
    3284:	30 e0       	ldi	r19, 0x00	; 0
    3286:	40 e0       	ldi	r20, 0x00	; 0
    3288:	50 e0       	ldi	r21, 0x00	; 0
    328a:	e6 e0       	ldi	r30, 0x06	; 6
    328c:	ee 2e       	mov	r14, r30
    328e:	f1 2c       	mov	r15, r1
    3290:	01 2d       	mov	r16, r1
    3292:	11 2d       	mov	r17, r1
    3294:	aa 24       	eor	r10, r10
    3296:	bb 24       	eor	r11, r11
    3298:	65 01       	movw	r12, r10
    329a:	0e 94 38 27 	call	0x4e70	;  0x4e70
    329e:	0e 94 d7 2b 	call	0x57ae	;  0x57ae
    32a2:	7b 01       	movw	r14, r22
    32a4:	8c 01       	movw	r16, r24
    32a6:	0f 90       	pop	r0
    32a8:	0f 90       	pop	r0
    32aa:	0f 90       	pop	r0
    32ac:	0f 90       	pop	r0
    32ae:	0a c0       	rjmp	.+20     	;  0x32c4
    32b0:	c8 01       	movw	r24, r16
    32b2:	b7 01       	movw	r22, r14
    32b4:	20 e0       	ldi	r18, 0x00	; 0
    32b6:	30 e0       	ldi	r19, 0x00	; 0
    32b8:	4f e7       	ldi	r20, 0x7F	; 127
    32ba:	53 e4       	ldi	r21, 0x43	; 67
    32bc:	0e 94 6f 2a 	call	0x54de	;  0x54de
    32c0:	7b 01       	movw	r14, r22
    32c2:	8c 01       	movw	r16, r24
    32c4:	c8 01       	movw	r24, r16
    32c6:	b7 01       	movw	r22, r14
    32c8:	20 e0       	ldi	r18, 0x00	; 0
    32ca:	30 e0       	ldi	r19, 0x00	; 0
    32cc:	40 e0       	ldi	r20, 0x00	; 0
    32ce:	50 e0       	ldi	r21, 0x00	; 0
    32d0:	0e 94 35 2b 	call	0x566a	;  0x566a
    32d4:	87 fd       	sbrc	r24, 7
    32d6:	ec cf       	rjmp	.-40     	;  0x32b0
    32d8:	0a c0       	rjmp	.+20     	;  0x32ee
    32da:	c8 01       	movw	r24, r16
    32dc:	b7 01       	movw	r22, r14
    32de:	20 e0       	ldi	r18, 0x00	; 0
    32e0:	30 e0       	ldi	r19, 0x00	; 0
    32e2:	4f e7       	ldi	r20, 0x7F	; 127
    32e4:	53 e4       	ldi	r21, 0x43	; 67
    32e6:	0e 94 6f 2a 	call	0x54de	;  0x54de
    32ea:	7b 01       	movw	r14, r22
    32ec:	8c 01       	movw	r16, r24
    32ee:	c8 01       	movw	r24, r16
    32f0:	b7 01       	movw	r22, r14
    32f2:	20 e0       	ldi	r18, 0x00	; 0
    32f4:	30 e0       	ldi	r19, 0x00	; 0
    32f6:	4f e7       	ldi	r20, 0x7F	; 127
    32f8:	53 e4       	ldi	r21, 0x43	; 67
    32fa:	0e 94 ff 2c 	call	0x59fe	;  0x59fe
    32fe:	18 16       	cp	r1, r24
    3300:	64 f3       	brlt	.-40     	;  0x32da
    3302:	c8 01       	movw	r24, r16
    3304:	b7 01       	movw	r22, r14
    3306:	0e 94 a9 2b 	call	0x5752	;  0x5752
    330a:	60 93 83 05 	sts	0x0583, r22
    330e:	60 91 44 05 	lds	r22, 0x0544
    3312:	70 91 45 05 	lds	r23, 0x0545
    3316:	80 91 46 05 	lds	r24, 0x0546
    331a:	90 91 47 05 	lds	r25, 0x0547
    331e:	0e 94 a9 2b 	call	0x5752	;  0x5752
    3322:	60 93 82 05 	sts	0x0582, r22
    3326:	60 91 12 05 	lds	r22, 0x0512
    332a:	70 91 13 05 	lds	r23, 0x0513
    332e:	80 91 14 05 	lds	r24, 0x0514
    3332:	90 91 15 05 	lds	r25, 0x0515
    3336:	0e 94 a9 2b 	call	0x5752	;  0x5752
    333a:	60 93 84 05 	sts	0x0584, r22
    333e:	60 91 16 05 	lds	r22, 0x0516
    3342:	70 91 17 05 	lds	r23, 0x0517
    3346:	80 91 18 05 	lds	r24, 0x0518
    334a:	90 91 19 05 	lds	r25, 0x0519
    334e:	0e 94 a9 2b 	call	0x5752	;  0x5752
    3352:	60 93 85 05 	sts	0x0585, r22
    3356:	81 e0       	ldi	r24, 0x01	; 1
    3358:	80 93 86 05 	sts	0x0586, r24
    335c:	88 e3       	ldi	r24, 0x38	; 56
    335e:	96 e0       	ldi	r25, 0x06	; 6
    3360:	60 e8       	ldi	r22, 0x80	; 128
    3362:	75 e0       	ldi	r23, 0x05	; 5
    3364:	46 e0       	ldi	r20, 0x06	; 6
    3366:	50 e0       	ldi	r21, 0x00	; 0
    3368:	33 d3       	rcall	.+1638   	;  0x39d0
    336a:	1f 91       	pop	r17
    336c:	0f 91       	pop	r16
    336e:	ff 90       	pop	r15
    3370:	ef 90       	pop	r14
    3372:	df 90       	pop	r13
    3374:	cf 90       	pop	r12
    3376:	bf 90       	pop	r11
    3378:	af 90       	pop	r10
    337a:	08 95       	ret
    337c:	60 93 87 05 	sts	0x0587, r22
    3380:	70 93 88 05 	sts	0x0588, r23
    3384:	80 93 89 05 	sts	0x0589, r24
    3388:	90 93 8a 05 	sts	0x058A, r25
    338c:	08 95       	ret
    338e:	af 92       	push	r10
    3390:	bf 92       	push	r11
    3392:	cf 92       	push	r12
    3394:	df 92       	push	r13
    3396:	ef 92       	push	r14
    3398:	ff 92       	push	r15
    339a:	0f 93       	push	r16
    339c:	1f 93       	push	r17
    339e:	e0 90 87 05 	lds	r14, 0x0587
    33a2:	f0 90 88 05 	lds	r15, 0x0588
    33a6:	00 91 89 05 	lds	r16, 0x0589
    33aa:	10 91 8a 05 	lds	r17, 0x058A
    33ae:	c8 01       	movw	r24, r16
    33b0:	b7 01       	movw	r22, r14
    33b2:	2d e1       	ldi	r18, 0x1D	; 29
    33b4:	33 ef       	ldi	r19, 0xF3	; 243
    33b6:	41 e0       	ldi	r20, 0x01	; 1
    33b8:	50 e0       	ldi	r21, 0x00	; 0
    33ba:	0e 94 52 2e 	call	0x5ca4	;  0x5ca4
    33be:	d2 2e       	mov	r13, r18
    33c0:	c3 2e       	mov	r12, r19
    33c2:	b4 2e       	mov	r11, r20
    33c4:	a5 2e       	mov	r10, r21
    33c6:	62 2f       	mov	r22, r18
    33c8:	73 2f       	mov	r23, r19
    33ca:	84 2f       	mov	r24, r20
    33cc:	95 2f       	mov	r25, r21
    33ce:	23 ee       	ldi	r18, 0xE3	; 227
    33d0:	3c e0       	ldi	r19, 0x0C	; 12
    33d2:	4e ef       	ldi	r20, 0xFE	; 254
    33d4:	5f ef       	ldi	r21, 0xFF	; 255
    33d6:	0e 94 ea 2d 	call	0x5bd4	;  0x5bd4
    33da:	e6 0e       	add	r14, r22
    33dc:	f7 1e       	adc	r15, r23
    33de:	08 1f       	adc	r16, r24
    33e0:	19 1f       	adc	r17, r25
    33e2:	c8 01       	movw	r24, r16
    33e4:	b7 01       	movw	r22, r14
    33e6:	27 ea       	ldi	r18, 0xA7	; 167
    33e8:	31 e4       	ldi	r19, 0x41	; 65
    33ea:	40 e0       	ldi	r20, 0x00	; 0
    33ec:	50 e0       	ldi	r21, 0x00	; 0
    33ee:	0e 94 ea 2d 	call	0x5bd4	;  0x5bd4
    33f2:	7b 01       	movw	r14, r22
    33f4:	8c 01       	movw	r16, r24
    33f6:	6d 2d       	mov	r22, r13
    33f8:	7c 2d       	mov	r23, r12
    33fa:	8b 2d       	mov	r24, r11
    33fc:	9a 2d       	mov	r25, r10
    33fe:	2c ee       	ldi	r18, 0xEC	; 236
    3400:	34 ef       	ldi	r19, 0xF4	; 244
    3402:	4f ef       	ldi	r20, 0xFF	; 255
    3404:	5f ef       	ldi	r21, 0xFF	; 255
    3406:	0e 94 ea 2d 	call	0x5bd4	;  0x5bd4
    340a:	e6 0e       	add	r14, r22
    340c:	f7 1e       	adc	r15, r23
    340e:	08 1f       	adc	r16, r24
    3410:	19 1f       	adc	r17, r25
    3412:	e0 92 87 05 	sts	0x0587, r14
    3416:	f0 92 88 05 	sts	0x0588, r15
    341a:	00 93 89 05 	sts	0x0589, r16
    341e:	10 93 8a 05 	sts	0x058A, r17
    3422:	17 ff       	sbrs	r17, 7
    3424:	10 c0       	rjmp	.+32     	;  0x3446
    3426:	8f ef       	ldi	r24, 0xFF	; 255
    3428:	9f ef       	ldi	r25, 0xFF	; 255
    342a:	af ef       	ldi	r26, 0xFF	; 255
    342c:	bf e7       	ldi	r27, 0x7F	; 127
    342e:	e8 0e       	add	r14, r24
    3430:	f9 1e       	adc	r15, r25
    3432:	0a 1f       	adc	r16, r26
    3434:	1b 1f       	adc	r17, r27
    3436:	e0 92 87 05 	sts	0x0587, r14
    343a:	f0 92 88 05 	sts	0x0588, r15
    343e:	00 93 89 05 	sts	0x0589, r16
    3442:	10 93 8a 05 	sts	0x058A, r17
    3446:	60 91 87 05 	lds	r22, 0x0587
    344a:	70 91 88 05 	lds	r23, 0x0588
    344e:	80 91 89 05 	lds	r24, 0x0589
    3452:	90 91 8a 05 	lds	r25, 0x058A
    3456:	0e 94 d7 2b 	call	0x57ae	;  0x57ae
    345a:	20 e0       	ldi	r18, 0x00	; 0
    345c:	30 e0       	ldi	r19, 0x00	; 0
    345e:	40 e0       	ldi	r20, 0x00	; 0
    3460:	50 e3       	ldi	r21, 0x30	; 48
    3462:	0e 94 0a 2d 	call	0x5a14	;  0x5a14
    3466:	1f 91       	pop	r17
    3468:	0f 91       	pop	r16
    346a:	ff 90       	pop	r15
    346c:	ef 90       	pop	r14
    346e:	df 90       	pop	r13
    3470:	cf 90       	pop	r12
    3472:	bf 90       	pop	r11
    3474:	af 90       	pop	r10
    3476:	08 95       	ret
    3478:	f8 94       	cli
    347a:	ff cf       	rjmp	.-2      	;  0x347a
    347c:	0c 94 d6 29 	jmp	0x53ac	;  0x53ac
    3480:	08 95       	ret
    3482:	8b e8       	ldi	r24, 0x8B	; 139
    3484:	95 e0       	ldi	r25, 0x05	; 5
    3486:	64 eb       	ldi	r22, 0xB4	; 180
    3488:	72 e0       	ldi	r23, 0x02	; 2
    348a:	4a e0       	ldi	r20, 0x0A	; 10
    348c:	0c 94 64 22 	jmp	0x44c8	;  0x44c8
    3490:	1f 93       	push	r17
    3492:	0e c0       	rjmp	.+28     	;  0x34b0
    3494:	8d e3       	ldi	r24, 0x3D	; 61
    3496:	97 e0       	ldi	r25, 0x07	; 7
    3498:	0e 94 cf 23 	call	0x479e	;  0x479e
    349c:	18 2f       	mov	r17, r24
    349e:	8d e3       	ldi	r24, 0x3D	; 61
    34a0:	97 e0       	ldi	r25, 0x07	; 7
    34a2:	61 2f       	mov	r22, r17
    34a4:	0e 94 eb 24 	call	0x49d6	;  0x49d6
    34a8:	8b e8       	ldi	r24, 0x8B	; 139
    34aa:	95 e0       	ldi	r25, 0x05	; 5
    34ac:	61 2f       	mov	r22, r17
    34ae:	d6 d7       	rcall	.+4012   	;  0x445c
    34b0:	8d e3       	ldi	r24, 0x3D	; 61
    34b2:	97 e0       	ldi	r25, 0x07	; 7
    34b4:	0e 94 9e 23 	call	0x473c	;  0x473c
    34b8:	89 2b       	or	r24, r25
    34ba:	61 f7       	brne	.-40     	;  0x3494
    34bc:	1f 91       	pop	r17
    34be:	08 95       	ret
    34c0:	0f 93       	push	r16
    34c2:	1f 93       	push	r17
    34c4:	8d e3       	ldi	r24, 0x3D	; 61
    34c6:	97 e0       	ldi	r25, 0x07	; 7
    34c8:	6a ee       	ldi	r22, 0xEA	; 234
    34ca:	71 e0       	ldi	r23, 0x01	; 1
    34cc:	0e 94 41 26 	call	0x4c82	;  0x4c82
    34d0:	60 91 72 05 	lds	r22, 0x0572
    34d4:	8d e3       	ldi	r24, 0x3D	; 61
    34d6:	97 e0       	ldi	r25, 0x07	; 7
    34d8:	70 e0       	ldi	r23, 0x00	; 0
    34da:	4a e0       	ldi	r20, 0x0A	; 10
    34dc:	50 e0       	ldi	r21, 0x00	; 0
    34de:	0e 94 12 26 	call	0x4c24	;  0x4c24
    34e2:	8d e3       	ldi	r24, 0x3D	; 61
    34e4:	97 e0       	ldi	r25, 0x07	; 7
    34e6:	61 ef       	ldi	r22, 0xF1	; 241
    34e8:	71 e0       	ldi	r23, 0x01	; 1
    34ea:	0e 94 41 26 	call	0x4c82	;  0x4c82
    34ee:	40 91 6e 05 	lds	r20, 0x056E
    34f2:	50 91 6f 05 	lds	r21, 0x056F
    34f6:	60 91 70 05 	lds	r22, 0x0570
    34fa:	70 91 71 05 	lds	r23, 0x0571
    34fe:	8d e3       	ldi	r24, 0x3D	; 61
    3500:	97 e0       	ldi	r25, 0x07	; 7
    3502:	2a e0       	ldi	r18, 0x0A	; 10
    3504:	30 e0       	ldi	r19, 0x00	; 0
    3506:	0e 94 d4 25 	call	0x4ba8	;  0x4ba8
    350a:	8d e3       	ldi	r24, 0x3D	; 61
    350c:	97 e0       	ldi	r25, 0x07	; 7
    350e:	67 ef       	ldi	r22, 0xF7	; 247
    3510:	71 e0       	ldi	r23, 0x01	; 1
    3512:	0e 94 41 26 	call	0x4c82	;  0x4c82
    3516:	0e 94 e2 27 	call	0x4fc4	;  0x4fc4
    351a:	8b 01       	movw	r16, r22
    351c:	9c 01       	movw	r18, r24
    351e:	80 91 66 05 	lds	r24, 0x0566
    3522:	90 91 67 05 	lds	r25, 0x0567
    3526:	a0 91 68 05 	lds	r26, 0x0568
    352a:	b0 91 69 05 	lds	r27, 0x0569
    352e:	08 17       	cp	r16, r24
    3530:	19 07       	cpc	r17, r25
    3532:	2a 07       	cpc	r18, r26
    3534:	3b 07       	cpc	r19, r27
    3536:	78 f0       	brcs	.+30     	;  0x3556
    3538:	80 91 66 05 	lds	r24, 0x0566
    353c:	90 91 67 05 	lds	r25, 0x0567
    3540:	a0 91 68 05 	lds	r26, 0x0568
    3544:	b0 91 69 05 	lds	r27, 0x0569
    3548:	b9 01       	movw	r22, r18
    354a:	a8 01       	movw	r20, r16
    354c:	48 1b       	sub	r20, r24
    354e:	59 0b       	sbc	r21, r25
    3550:	6a 0b       	sbc	r22, r26
    3552:	7b 0b       	sbc	r23, r27
    3554:	10 c0       	rjmp	.+32     	;  0x3576
    3556:	40 91 66 05 	lds	r20, 0x0566
    355a:	50 91 67 05 	lds	r21, 0x0567
    355e:	60 91 68 05 	lds	r22, 0x0568
    3562:	70 91 69 05 	lds	r23, 0x0569
    3566:	40 95       	com	r20
    3568:	50 95       	com	r21
    356a:	60 95       	com	r22
    356c:	70 95       	com	r23
    356e:	40 0f       	add	r20, r16
    3570:	51 1f       	adc	r21, r17
    3572:	62 1f       	adc	r22, r18
    3574:	73 1f       	adc	r23, r19
    3576:	8d e3       	ldi	r24, 0x3D	; 61
    3578:	97 e0       	ldi	r25, 0x07	; 7
    357a:	2a e0       	ldi	r18, 0x0A	; 10
    357c:	30 e0       	ldi	r19, 0x00	; 0
    357e:	0e 94 b1 25 	call	0x4b62	;  0x4b62
    3582:	1f 91       	pop	r17
    3584:	0f 91       	pop	r16
    3586:	08 95       	ret
    3588:	0f 93       	push	r16
    358a:	1f 93       	push	r17
    358c:	0a e1       	ldi	r16, 0x1A	; 26
    358e:	15 e0       	ldi	r17, 0x05	; 5
    3590:	c8 01       	movw	r24, r16
    3592:	65 e0       	ldi	r22, 0x05	; 5
    3594:	72 e0       	ldi	r23, 0x02	; 2
    3596:	19 db       	rcall	.-2510   	;  0x2bca
    3598:	c8 01       	movw	r24, r16
    359a:	06 96       	adiw	r24, 0x06	; 6
    359c:	6b e0       	ldi	r22, 0x0B	; 11
    359e:	72 e0       	ldi	r23, 0x02	; 2
    35a0:	14 db       	rcall	.-2520   	;  0x2bca
    35a2:	c8 01       	movw	r24, r16
    35a4:	0c 96       	adiw	r24, 0x0c	; 12
    35a6:	62 e1       	ldi	r22, 0x12	; 18
    35a8:	72 e0       	ldi	r23, 0x02	; 2
    35aa:	0f db       	rcall	.-2530   	;  0x2bca
    35ac:	c8 01       	movw	r24, r16
    35ae:	42 96       	adiw	r24, 0x12	; 18
    35b0:	68 e1       	ldi	r22, 0x18	; 24
    35b2:	72 e0       	ldi	r23, 0x02	; 2
    35b4:	0a db       	rcall	.-2540   	;  0x2bca
    35b6:	c8 01       	movw	r24, r16
    35b8:	48 96       	adiw	r24, 0x18	; 24
    35ba:	60 e2       	ldi	r22, 0x20	; 32
    35bc:	72 e0       	ldi	r23, 0x02	; 2
    35be:	05 db       	rcall	.-2550   	;  0x2bca
    35c0:	0d e3       	ldi	r16, 0x3D	; 61
    35c2:	17 e0       	ldi	r17, 0x07	; 7
    35c4:	c8 01       	movw	r24, r16
    35c6:	66 e2       	ldi	r22, 0x26	; 38
    35c8:	72 e0       	ldi	r23, 0x02	; 2
    35ca:	0e 94 41 26 	call	0x4c82	;  0x4c82
    35ce:	c8 01       	movw	r24, r16
    35d0:	60 e3       	ldi	r22, 0x30	; 48
    35d2:	72 e0       	ldi	r23, 0x02	; 2
    35d4:	0e 94 41 26 	call	0x4c82	;  0x4c82
    35d8:	60 91 38 05 	lds	r22, 0x0538
    35dc:	70 91 39 05 	lds	r23, 0x0539
    35e0:	c8 01       	movw	r24, r16
    35e2:	4a e0       	ldi	r20, 0x0A	; 10
    35e4:	50 e0       	ldi	r21, 0x00	; 0
    35e6:	0e 94 12 26 	call	0x4c24	;  0x4c24
    35ea:	c8 01       	movw	r24, r16
    35ec:	68 e3       	ldi	r22, 0x38	; 56
    35ee:	72 e0       	ldi	r23, 0x02	; 2
    35f0:	0e 94 41 26 	call	0x4c82	;  0x4c82
    35f4:	60 91 3a 05 	lds	r22, 0x053A
    35f8:	70 91 3b 05 	lds	r23, 0x053B
    35fc:	c8 01       	movw	r24, r16
    35fe:	4a e0       	ldi	r20, 0x0A	; 10
    3600:	50 e0       	ldi	r21, 0x00	; 0
    3602:	0e 94 12 26 	call	0x4c24	;  0x4c24
    3606:	c8 01       	movw	r24, r16
    3608:	63 e4       	ldi	r22, 0x43	; 67
    360a:	72 e0       	ldi	r23, 0x02	; 2
    360c:	0e 94 41 26 	call	0x4c82	;  0x4c82
    3610:	40 91 40 05 	lds	r20, 0x0540
    3614:	50 91 41 05 	lds	r21, 0x0541
    3618:	60 91 42 05 	lds	r22, 0x0542
    361c:	70 91 43 05 	lds	r23, 0x0543
    3620:	c8 01       	movw	r24, r16
    3622:	22 e0       	ldi	r18, 0x02	; 2
    3624:	30 e0       	ldi	r19, 0x00	; 0
    3626:	0e 94 14 27 	call	0x4e28	;  0x4e28
    362a:	c8 01       	movw	r24, r16
    362c:	6d e4       	ldi	r22, 0x4D	; 77
    362e:	72 e0       	ldi	r23, 0x02	; 2
    3630:	0e 94 41 26 	call	0x4c82	;  0x4c82
    3634:	40 91 3c 05 	lds	r20, 0x053C
    3638:	50 91 3d 05 	lds	r21, 0x053D
    363c:	60 91 3e 05 	lds	r22, 0x053E
    3640:	70 91 3f 05 	lds	r23, 0x053F
    3644:	c8 01       	movw	r24, r16
    3646:	22 e0       	ldi	r18, 0x02	; 2
    3648:	30 e0       	ldi	r19, 0x00	; 0
    364a:	0e 94 14 27 	call	0x4e28	;  0x4e28
    364e:	c8 01       	movw	r24, r16
    3650:	67 e5       	ldi	r22, 0x57	; 87
    3652:	72 e0       	ldi	r23, 0x02	; 2
    3654:	0e 94 41 26 	call	0x4c82	;  0x4c82
    3658:	40 91 44 05 	lds	r20, 0x0544
    365c:	50 91 45 05 	lds	r21, 0x0545
    3660:	60 91 46 05 	lds	r22, 0x0546
    3664:	70 91 47 05 	lds	r23, 0x0547
    3668:	c8 01       	movw	r24, r16
    366a:	22 e0       	ldi	r18, 0x02	; 2
    366c:	30 e0       	ldi	r19, 0x00	; 0
    366e:	0e 94 16 27 	call	0x4e2c	;  0x4e2c
    3672:	1f 91       	pop	r17
    3674:	0f 91       	pop	r16
    3676:	08 95       	ret
    3678:	cf 93       	push	r28
    367a:	df 93       	push	r29
    367c:	8d e3       	ldi	r24, 0x3D	; 61
    367e:	97 e0       	ldi	r25, 0x07	; 7
    3680:	6f e5       	ldi	r22, 0x5F	; 95
    3682:	72 e0       	ldi	r23, 0x02	; 2
    3684:	0e 94 27 27 	call	0x4e4e	;  0x4e4e
    3688:	cc e9       	ldi	r28, 0x9C	; 156
    368a:	d4 e0       	ldi	r29, 0x04	; 4
    368c:	8d e3       	ldi	r24, 0x3D	; 61
    368e:	97 e0       	ldi	r25, 0x07	; 7
    3690:	63 e7       	ldi	r22, 0x73	; 115
    3692:	72 e0       	ldi	r23, 0x02	; 2
    3694:	0e 94 41 26 	call	0x4c82	;  0x4c82
    3698:	8d e3       	ldi	r24, 0x3D	; 61
    369a:	97 e0       	ldi	r25, 0x07	; 7
    369c:	68 81       	ld	r22, Y
    369e:	4a e0       	ldi	r20, 0x0A	; 10
    36a0:	50 e0       	ldi	r21, 0x00	; 0
    36a2:	0e 94 c3 25 	call	0x4b86	;  0x4b86
    36a6:	8d e3       	ldi	r24, 0x3D	; 61
    36a8:	97 e0       	ldi	r25, 0x07	; 7
    36aa:	69 e7       	ldi	r22, 0x79	; 121
    36ac:	72 e0       	ldi	r23, 0x02	; 2
    36ae:	0e 94 41 26 	call	0x4c82	;  0x4c82
    36b2:	8d e3       	ldi	r24, 0x3D	; 61
    36b4:	97 e0       	ldi	r25, 0x07	; 7
    36b6:	69 81       	ldd	r22, Y+1	; 0x01
    36b8:	4a e0       	ldi	r20, 0x0A	; 10
    36ba:	50 e0       	ldi	r21, 0x00	; 0
    36bc:	0e 94 c3 25 	call	0x4b86	;  0x4b86
    36c0:	8d e3       	ldi	r24, 0x3D	; 61
    36c2:	97 e0       	ldi	r25, 0x07	; 7
    36c4:	6b e7       	ldi	r22, 0x7B	; 123
    36c6:	72 e0       	ldi	r23, 0x02	; 2
    36c8:	0e 94 41 26 	call	0x4c82	;  0x4c82
    36cc:	8d e3       	ldi	r24, 0x3D	; 61
    36ce:	97 e0       	ldi	r25, 0x07	; 7
    36d0:	6a 81       	ldd	r22, Y+2	; 0x02
    36d2:	4a e0       	ldi	r20, 0x0A	; 10
    36d4:	50 e0       	ldi	r21, 0x00	; 0
    36d6:	0e 94 c3 25 	call	0x4b86	;  0x4b86
    36da:	8d e3       	ldi	r24, 0x3D	; 61
    36dc:	97 e0       	ldi	r25, 0x07	; 7
    36de:	60 e8       	ldi	r22, 0x80	; 128
    36e0:	72 e0       	ldi	r23, 0x02	; 2
    36e2:	0e 94 41 26 	call	0x4c82	;  0x4c82
    36e6:	6b 81       	ldd	r22, Y+3	; 0x03
    36e8:	77 27       	eor	r23, r23
    36ea:	67 fd       	sbrc	r22, 7
    36ec:	70 95       	com	r23
    36ee:	8d e3       	ldi	r24, 0x3D	; 61
    36f0:	97 e0       	ldi	r25, 0x07	; 7
    36f2:	4a e0       	ldi	r20, 0x0A	; 10
    36f4:	50 e0       	ldi	r21, 0x00	; 0
    36f6:	0e 94 12 26 	call	0x4c24	;  0x4c24
    36fa:	8d e3       	ldi	r24, 0x3D	; 61
    36fc:	97 e0       	ldi	r25, 0x07	; 7
    36fe:	69 e7       	ldi	r22, 0x79	; 121
    3700:	72 e0       	ldi	r23, 0x02	; 2
    3702:	0e 94 41 26 	call	0x4c82	;  0x4c82
    3706:	6c 81       	ldd	r22, Y+4	; 0x04
    3708:	77 27       	eor	r23, r23
    370a:	67 fd       	sbrc	r22, 7
    370c:	70 95       	com	r23
    370e:	8d e3       	ldi	r24, 0x3D	; 61
    3710:	97 e0       	ldi	r25, 0x07	; 7
    3712:	4a e0       	ldi	r20, 0x0A	; 10
    3714:	50 e0       	ldi	r21, 0x00	; 0
    3716:	0e 94 12 26 	call	0x4c24	;  0x4c24
    371a:	8d e3       	ldi	r24, 0x3D	; 61
    371c:	97 e0       	ldi	r25, 0x07	; 7
    371e:	65 e8       	ldi	r22, 0x85	; 133
    3720:	72 e0       	ldi	r23, 0x02	; 2
    3722:	0e 94 27 27 	call	0x4e4e	;  0x4e4e
    3726:	25 96       	adiw	r28, 0x05	; 5
    3728:	84 e0       	ldi	r24, 0x04	; 4
    372a:	ce 3c       	cpi	r28, 0xCE	; 206
    372c:	d8 07       	cpc	r29, r24
    372e:	09 f0       	breq	.+2      	;  0x3732
    3730:	ad cf       	rjmp	.-166    	;  0x368c
    3732:	df 91       	pop	r29
    3734:	cf 91       	pop	r28
    3736:	08 95       	ret
    3738:	8b e8       	ldi	r24, 0x8B	; 139
    373a:	95 e0       	ldi	r25, 0x05	; 5
    373c:	67 ea       	ldi	r22, 0xA7	; 167
    373e:	7b e1       	ldi	r23, 0x1B	; 27
    3740:	db c4       	rjmp	.+2486   	;  0x40f8
    3742:	8d e3       	ldi	r24, 0x3D	; 61
    3744:	97 e0       	ldi	r25, 0x07	; 7
    3746:	63 eb       	ldi	r22, 0xB3	; 179
    3748:	70 e0       	ldi	r23, 0x00	; 0
    374a:	0c 94 13 25 	jmp	0x4a26	;  0x4a26
    374e:	ef 92       	push	r14
    3750:	ff 92       	push	r15
    3752:	0f 93       	push	r16
    3754:	1f 93       	push	r17
    3756:	7c 01       	movw	r14, r24
    3758:	0d e3       	ldi	r16, 0x3D	; 61
    375a:	17 e0       	ldi	r17, 0x07	; 7
    375c:	c8 01       	movw	r24, r16
    375e:	67 e8       	ldi	r22, 0x87	; 135
    3760:	72 e0       	ldi	r23, 0x02	; 2
    3762:	0e 94 41 26 	call	0x4c82	;  0x4c82
    3766:	c8 01       	movw	r24, r16
    3768:	b7 01       	movw	r22, r14
    376a:	0e 94 41 26 	call	0x4c82	;  0x4c82
    376e:	c8 01       	movw	r24, r16
    3770:	66 e9       	ldi	r22, 0x96	; 150
    3772:	72 e0       	ldi	r23, 0x02	; 2
    3774:	0e 94 41 26 	call	0x4c82	;  0x4c82
    3778:	e4 df       	rcall	.-56     	;  0x3742
    377a:	1f 91       	pop	r17
    377c:	0f 91       	pop	r16
    377e:	ff 90       	pop	r15
    3780:	ef 90       	pop	r14
    3782:	08 95       	ret
    3784:	94 e1       	ldi	r25, 0x14	; 20
    3786:	9a 95       	dec	r25
    3788:	f1 f7       	brne	.-4      	;  0x3786
    378a:	08 95       	ret
    378c:	08 95       	ret
    378e:	4a 9b       	sbis	0x09, 2	; 9
    3790:	fe cf       	rjmp	.-4      	;  0x378e
    3792:	a8 94       	cln
    3794:	08 95       	ret
    3796:	08 95       	ret
    3798:	53 98       	cbi	0x0a, 3	; 10
    379a:	52 98       	cbi	0x0a, 2	; 10
    379c:	5b 98       	cbi	0x0b, 3	; 11
    379e:	5a 98       	cbi	0x0b, 2	; 11
    37a0:	88 27       	eor	r24, r24
    37a2:	99 27       	eor	r25, r25
    37a4:	4b 9b       	sbis	0x09, 3	; 9
    37a6:	08 95       	ret
    37a8:	4a 9b       	sbis	0x09, 2	; 9
    37aa:	08 95       	ret
    37ac:	81 e0       	ldi	r24, 0x01	; 1
    37ae:	08 95       	ret
    37b0:	81 e0       	ldi	r24, 0x01	; 1
    37b2:	08 95       	ret
    37b4:	4a 9b       	sbis	0x09, 2	; 9
    37b6:	eb df       	rcall	.-42     	;  0x378e
    37b8:	53 9a       	sbi	0x0a, 3	; 10
    37ba:	e4 df       	rcall	.-56     	;  0x3784
    37bc:	18 c0       	rjmp	.+48     	;  0x37ee
    37be:	81 e0       	ldi	r24, 0x01	; 1
    37c0:	08 95       	ret
    37c2:	52 9a       	sbi	0x0a, 2	; 10
    37c4:	df df       	rcall	.-66     	;  0x3784
    37c6:	53 98       	cbi	0x0a, 3	; 10
    37c8:	dd df       	rcall	.-70     	;  0x3784
    37ca:	52 98       	cbi	0x0a, 2	; 10
    37cc:	db df       	rcall	.-74     	;  0x3784
    37ce:	4a 9b       	sbis	0x09, 2	; 9
    37d0:	de df       	rcall	.-68     	;  0x378e
    37d2:	53 9a       	sbi	0x0a, 3	; 10
    37d4:	d7 df       	rcall	.-82     	;  0x3784
    37d6:	0b c0       	rjmp	.+22     	;  0x37ee
    37d8:	81 e0       	ldi	r24, 0x01	; 1
    37da:	08 95       	ret
    37dc:	52 9a       	sbi	0x0a, 2	; 10
    37de:	53 9a       	sbi	0x0a, 3	; 10
    37e0:	d1 df       	rcall	.-94     	;  0x3784
    37e2:	52 98       	cbi	0x0a, 2	; 10
    37e4:	cf df       	rcall	.-98     	;  0x3784
    37e6:	4a 9b       	sbis	0x09, 2	; 9
    37e8:	d2 df       	rcall	.-92     	;  0x378e
    37ea:	53 98       	cbi	0x0a, 3	; 10
    37ec:	cb cf       	rjmp	.-106    	;  0x3784
    37ee:	08 94       	sec
    37f0:	88 1f       	adc	r24, r24
    37f2:	01 c0       	rjmp	.+2      	;  0x37f6
    37f4:	88 0f       	add	r24, r24
    37f6:	b9 f0       	breq	.+46     	;  0x3826
    37f8:	52 9a       	sbi	0x0a, 2	; 10
    37fa:	00 00       	nop
    37fc:	00 00       	nop
    37fe:	00 00       	nop
    3800:	18 f4       	brcc	.+6      	;  0x3808
    3802:	00 00       	nop
    3804:	53 98       	cbi	0x0a, 3	; 10
    3806:	02 c0       	rjmp	.+4      	;  0x380c
    3808:	53 9a       	sbi	0x0a, 3	; 10
    380a:	00 c0       	rjmp	.+0      	;  0x380c
    380c:	bb df       	rcall	.-138    	;  0x3784
    380e:	52 98       	cbi	0x0a, 2	; 10
    3810:	a8 94       	cln
    3812:	00 00       	nop
    3814:	00 00       	nop
    3816:	00 00       	nop
    3818:	4a 9b       	sbis	0x09, 2	; 9
    381a:	b9 df       	rcall	.-142    	;  0x378e
    381c:	12 f4       	brpl	.+4      	;  0x3822
    381e:	88 27       	eor	r24, r24
    3820:	12 c0       	rjmp	.+36     	;  0x3846
    3822:	b0 df       	rcall	.-160    	;  0x3784
    3824:	e7 cf       	rjmp	.-50     	;  0x37f4
    3826:	52 9a       	sbi	0x0a, 2	; 10
    3828:	00 00       	nop
    382a:	00 00       	nop
    382c:	53 98       	cbi	0x0a, 3	; 10
    382e:	aa df       	rcall	.-172    	;  0x3784
    3830:	99 27       	eor	r25, r25
    3832:	88 27       	eor	r24, r24
    3834:	52 98       	cbi	0x0a, 2	; 10
    3836:	a8 94       	cln
    3838:	00 00       	nop
    383a:	4a 9b       	sbis	0x09, 2	; 9
    383c:	a8 df       	rcall	.-176    	;  0x378e
    383e:	7a f3       	brmi	.-34     	;  0x381e
    3840:	4b 9b       	sbis	0x09, 3	; 9
    3842:	81 e0       	ldi	r24, 0x01	; 1
    3844:	9f df       	rcall	.-194    	;  0x3784
    3846:	00 00       	nop
    3848:	00 00       	nop
    384a:	52 9a       	sbi	0x0a, 2	; 10
    384c:	08 95       	ret
    384e:	81 e0       	ldi	r24, 0x01	; 1
    3850:	08 95       	ret
    3852:	71 e0       	ldi	r23, 0x01	; 1
    3854:	52 9a       	sbi	0x0a, 2	; 10
    3856:	53 98       	cbi	0x0a, 3	; 10
    3858:	00 00       	nop
    385a:	00 00       	nop
    385c:	00 00       	nop
    385e:	92 df       	rcall	.-220    	;  0x3784
    3860:	52 98       	cbi	0x0a, 2	; 10
    3862:	90 df       	rcall	.-224    	;  0x3784
    3864:	a8 94       	cln
    3866:	00 00       	nop
    3868:	00 00       	nop
    386a:	00 00       	nop
    386c:	4a 9b       	sbis	0x09, 2	; 9
    386e:	8f df       	rcall	.-226    	;  0x378e
    3870:	b2 f0       	brmi	.+44     	;  0x389e
    3872:	88 94       	clc
    3874:	4b 99       	sbic	0x09, 3	; 9
    3876:	08 94       	sec
    3878:	77 1f       	adc	r23, r23
    387a:	60 f7       	brcc	.-40     	;  0x3854
    387c:	52 9a       	sbi	0x0a, 2	; 10
    387e:	80 30       	cpi	r24, 0x00	; 0
    3880:	11 f0       	breq	.+4      	;  0x3886
    3882:	53 98       	cbi	0x0a, 3	; 10
    3884:	01 c0       	rjmp	.+2      	;  0x3888
    3886:	53 9a       	sbi	0x0a, 3	; 10
    3888:	00 00       	nop
    388a:	00 00       	nop
    388c:	00 00       	nop
    388e:	7a df       	rcall	.-268    	;  0x3784
    3890:	52 98       	cbi	0x0a, 2	; 10
    3892:	a8 94       	cln
    3894:	00 00       	nop
    3896:	00 00       	nop
    3898:	4a 9b       	sbis	0x09, 2	; 9
    389a:	79 df       	rcall	.-270    	;  0x378e
    389c:	73 df       	rcall	.-282    	;  0x3784
    389e:	00 00       	nop
    38a0:	00 00       	nop
    38a2:	52 9a       	sbi	0x0a, 2	; 10
    38a4:	87 2f       	mov	r24, r23
    38a6:	99 27       	eor	r25, r25
    38a8:	08 95       	ret
    38aa:	80 e2       	ldi	r24, 0x20	; 32
    38ac:	08 95       	ret
    38ae:	fc 01       	movw	r30, r24
    38b0:	80 e0       	ldi	r24, 0x00	; 0
    38b2:	93 e0       	ldi	r25, 0x03	; 3
    38b4:	91 83       	std	Z+1, r25	; 0x01
    38b6:	80 83       	st	Z, r24
    38b8:	08 95       	ret
    38ba:	20 91 10 06 	lds	r18, 0x0610
    38be:	30 e0       	ldi	r19, 0x00	; 0
    38c0:	80 91 0f 06 	lds	r24, 0x060F
    38c4:	28 1b       	sub	r18, r24
    38c6:	31 09       	sbc	r19, r1
    38c8:	c9 01       	movw	r24, r18
    38ca:	08 95       	ret
    38cc:	40 91 0f 06 	lds	r20, 0x060F
    38d0:	80 91 10 06 	lds	r24, 0x0610
    38d4:	48 17       	cp	r20, r24
    38d6:	18 f0       	brcs	.+6      	;  0x38de
    38d8:	2f ef       	ldi	r18, 0xFF	; 255
    38da:	3f ef       	ldi	r19, 0xFF	; 255
    38dc:	0a c0       	rjmp	.+20     	;  0x38f2
    38de:	e4 2f       	mov	r30, r20
    38e0:	f0 e0       	ldi	r31, 0x00	; 0
    38e2:	e1 51       	subi	r30, 0x11	; 17
    38e4:	fa 4f       	sbci	r31, 0xFA	; 250
    38e6:	80 81       	ld	r24, Z
    38e8:	28 2f       	mov	r18, r24
    38ea:	30 e0       	ldi	r19, 0x00	; 0
    38ec:	4f 5f       	subi	r20, 0xFF	; 255
    38ee:	40 93 0f 06 	sts	0x060F, r20
    38f2:	c9 01       	movw	r24, r18
    38f4:	08 95       	ret
    38f6:	e0 91 0f 06 	lds	r30, 0x060F
    38fa:	80 91 10 06 	lds	r24, 0x0610
    38fe:	e8 17       	cp	r30, r24
    3900:	18 f0       	brcs	.+6      	;  0x3908
    3902:	ef ef       	ldi	r30, 0xFF	; 255
    3904:	ff ef       	ldi	r31, 0xFF	; 255
    3906:	06 c0       	rjmp	.+12     	;  0x3914
    3908:	f0 e0       	ldi	r31, 0x00	; 0
    390a:	e1 51       	subi	r30, 0x11	; 17
    390c:	fa 4f       	sbci	r31, 0xFA	; 250
    390e:	80 81       	ld	r24, Z
    3910:	e8 2f       	mov	r30, r24
    3912:	f0 e0       	ldi	r31, 0x00	; 0
    3914:	cf 01       	movw	r24, r30
    3916:	08 95       	ret
    3918:	08 95       	ret
    391a:	ac 01       	movw	r20, r24
    391c:	20 91 36 06 	lds	r18, 0x0636
    3920:	30 91 37 06 	lds	r19, 0x0637
    3924:	21 15       	cp	r18, r1
    3926:	31 05       	cpc	r19, r1
    3928:	e1 f0       	breq	.+56     	;  0x3962
    392a:	90 91 0f 06 	lds	r25, 0x060F
    392e:	80 91 10 06 	lds	r24, 0x0610
    3932:	98 17       	cp	r25, r24
    3934:	b0 f0       	brcs	.+44     	;  0x3962
    3936:	90 e0       	ldi	r25, 0x00	; 0
    3938:	08 c0       	rjmp	.+16     	;  0x394a
    393a:	fa 01       	movw	r30, r20
    393c:	ea 0f       	add	r30, r26
    393e:	fb 1f       	adc	r31, r27
    3940:	80 81       	ld	r24, Z
    3942:	a1 51       	subi	r26, 0x11	; 17
    3944:	ba 4f       	sbci	r27, 0xFA	; 250
    3946:	8c 93       	st	X, r24
    3948:	9f 5f       	subi	r25, 0xFF	; 255
    394a:	a9 2f       	mov	r26, r25
    394c:	b0 e0       	ldi	r27, 0x00	; 0
    394e:	a6 17       	cp	r26, r22
    3950:	b7 07       	cpc	r27, r23
    3952:	9c f3       	brlt	.-26     	;  0x393a
    3954:	10 92 0f 06 	sts	0x060F, r1
    3958:	60 93 10 06 	sts	0x0610, r22
    395c:	cb 01       	movw	r24, r22
    395e:	f9 01       	movw	r30, r18
    3960:	09 95       	icall
    3962:	08 95       	ret
    3964:	e0 91 34 06 	lds	r30, 0x0634
    3968:	f0 91 35 06 	lds	r31, 0x0635
    396c:	30 97       	sbiw	r30, 0x00	; 0
    396e:	29 f0       	breq	.+10     	;  0x397a
    3970:	10 92 31 06 	sts	0x0631, r1
    3974:	10 92 32 06 	sts	0x0632, r1
    3978:	09 95       	icall
    397a:	08 95       	ret
    397c:	70 93 35 06 	sts	0x0635, r23
    3980:	60 93 34 06 	sts	0x0634, r22
    3984:	08 95       	ret
    3986:	10 92 3b 06 	sts	0x063B, r1
    398a:	10 92 3a 06 	sts	0x063A, r1
    398e:	88 ee       	ldi	r24, 0xE8	; 232
    3990:	93 e0       	ldi	r25, 0x03	; 3
    3992:	a0 e0       	ldi	r26, 0x00	; 0
    3994:	b0 e0       	ldi	r27, 0x00	; 0
    3996:	80 93 3c 06 	sts	0x063C, r24
    399a:	90 93 3d 06 	sts	0x063D, r25
    399e:	a0 93 3e 06 	sts	0x063E, r26
    39a2:	b0 93 3f 06 	sts	0x063F, r27
    39a6:	80 e0       	ldi	r24, 0x00	; 0
    39a8:	93 e0       	ldi	r25, 0x03	; 3
    39aa:	90 93 39 06 	sts	0x0639, r25
    39ae:	80 93 38 06 	sts	0x0638, r24
    39b2:	08 95       	ret
    39b4:	80 e0       	ldi	r24, 0x00	; 0
    39b6:	93 e0       	ldi	r25, 0x03	; 3
    39b8:	90 93 39 06 	sts	0x0639, r25
    39bc:	80 93 38 06 	sts	0x0638, r24
    39c0:	08 95       	ret
    39c2:	fc 01       	movw	r30, r24
    39c4:	80 e0       	ldi	r24, 0x00	; 0
    39c6:	93 e0       	ldi	r25, 0x03	; 3
    39c8:	91 83       	std	Z+1, r25	; 0x01
    39ca:	80 83       	st	Z, r24
    39cc:	cf 01       	movw	r24, r30
    39ce:	56 cd       	rjmp	.-1364   	;  0x347c
    39d0:	cf 92       	push	r12
    39d2:	df 92       	push	r13
    39d4:	ef 92       	push	r14
    39d6:	ff 92       	push	r15
    39d8:	0f 93       	push	r16
    39da:	1f 93       	push	r17
    39dc:	cf 93       	push	r28
    39de:	df 93       	push	r29
    39e0:	7c 01       	movw	r14, r24
    39e2:	6b 01       	movw	r12, r22
    39e4:	8a 01       	movw	r16, r20
    39e6:	80 91 33 06 	lds	r24, 0x0633
    39ea:	88 23       	and	r24, r24
    39ec:	a1 f0       	breq	.+40     	;  0x3a16
    39ee:	c0 e0       	ldi	r28, 0x00	; 0
    39f0:	d0 e0       	ldi	r29, 0x00	; 0
    39f2:	0d c0       	rjmp	.+26     	;  0x3a0e
    39f4:	d7 01       	movw	r26, r14
    39f6:	ed 91       	ld	r30, X+
    39f8:	fc 91       	ld	r31, X
    39fa:	d6 01       	movw	r26, r12
    39fc:	ac 0f       	add	r26, r28
    39fe:	bd 1f       	adc	r27, r29
    3a00:	01 90       	ld	r0, Z+
    3a02:	f0 81       	ld	r31, Z
    3a04:	e0 2d       	mov	r30, r0
    3a06:	c7 01       	movw	r24, r14
    3a08:	6c 91       	ld	r22, X
    3a0a:	09 95       	icall
    3a0c:	21 96       	adiw	r28, 0x01	; 1
    3a0e:	c0 17       	cp	r28, r16
    3a10:	d1 07       	cpc	r29, r17
    3a12:	80 f3       	brcs	.-32     	;  0x39f4
    3a14:	03 c0       	rjmp	.+6      	;  0x3a1c
    3a16:	cb 01       	movw	r24, r22
    3a18:	64 2f       	mov	r22, r20
    3a1a:	58 d0       	rcall	.+176    	;  0x3acc
    3a1c:	c8 01       	movw	r24, r16
    3a1e:	df 91       	pop	r29
    3a20:	cf 91       	pop	r28
    3a22:	1f 91       	pop	r17
    3a24:	0f 91       	pop	r16
    3a26:	ff 90       	pop	r15
    3a28:	ef 90       	pop	r14
    3a2a:	df 90       	pop	r13
    3a2c:	cf 90       	pop	r12
    3a2e:	08 95       	ret
    3a30:	df 93       	push	r29
    3a32:	cf 93       	push	r28
    3a34:	0f 92       	push	r0
    3a36:	cd b7       	in	r28, 0x3d	; 61
    3a38:	de b7       	in	r29, 0x3e	; 62
    3a3a:	fc 01       	movw	r30, r24
    3a3c:	69 83       	std	Y+1, r22	; 0x01
    3a3e:	80 91 33 06 	lds	r24, 0x0633
    3a42:	88 23       	and	r24, r24
    3a44:	c9 f0       	breq	.+50     	;  0x3a78
    3a46:	80 91 32 06 	lds	r24, 0x0632
    3a4a:	80 32       	cpi	r24, 0x20	; 32
    3a4c:	38 f0       	brcs	.+14     	;  0x3a5c
    3a4e:	81 e0       	ldi	r24, 0x01	; 1
    3a50:	90 e0       	ldi	r25, 0x00	; 0
    3a52:	93 83       	std	Z+3, r25	; 0x03
    3a54:	82 83       	std	Z+2, r24	; 0x02
    3a56:	20 e0       	ldi	r18, 0x00	; 0
    3a58:	30 e0       	ldi	r19, 0x00	; 0
    3a5a:	14 c0       	rjmp	.+40     	;  0x3a84
    3a5c:	80 91 31 06 	lds	r24, 0x0631
    3a60:	e8 2f       	mov	r30, r24
    3a62:	f0 e0       	ldi	r31, 0x00	; 0
    3a64:	ef 5e       	subi	r30, 0xEF	; 239
    3a66:	f9 4f       	sbci	r31, 0xF9	; 249
    3a68:	99 81       	ldd	r25, Y+1	; 0x01
    3a6a:	90 83       	st	Z, r25
    3a6c:	8f 5f       	subi	r24, 0xFF	; 255
    3a6e:	80 93 31 06 	sts	0x0631, r24
    3a72:	80 93 32 06 	sts	0x0632, r24
    3a76:	04 c0       	rjmp	.+8      	;  0x3a80
    3a78:	ce 01       	movw	r24, r28
    3a7a:	01 96       	adiw	r24, 0x01	; 1
    3a7c:	61 e0       	ldi	r22, 0x01	; 1
    3a7e:	26 d0       	rcall	.+76     	;  0x3acc
    3a80:	21 e0       	ldi	r18, 0x01	; 1
    3a82:	30 e0       	ldi	r19, 0x00	; 0
    3a84:	c9 01       	movw	r24, r18
    3a86:	0f 90       	pop	r0
    3a88:	cf 91       	pop	r28
    3a8a:	df 91       	pop	r29
    3a8c:	08 95       	ret
    3a8e:	10 92 0f 06 	sts	0x060F, r1
    3a92:	10 92 10 06 	sts	0x0610, r1
    3a96:	10 92 31 06 	sts	0x0631, r1
    3a9a:	10 92 32 06 	sts	0x0632, r1
    3a9e:	cc c1       	rjmp	.+920    	;  0x3e38
    3aa0:	0f 93       	push	r16
    3aa2:	1f 93       	push	r17
    3aa4:	8c 01       	movw	r16, r24
    3aa6:	86 2f       	mov	r24, r22
    3aa8:	0d d0       	rcall	.+26     	;  0x3ac4
    3aaa:	82 eb       	ldi	r24, 0xB2	; 178
    3aac:	9c e1       	ldi	r25, 0x1C	; 28
    3aae:	2e d0       	rcall	.+92     	;  0x3b0c
    3ab0:	8d e8       	ldi	r24, 0x8D	; 141
    3ab2:	9c e1       	ldi	r25, 0x1C	; 28
    3ab4:	26 d0       	rcall	.+76     	;  0x3b02
    3ab6:	c8 01       	movw	r24, r16
    3ab8:	ea df       	rcall	.-44     	;  0x3a8e
    3aba:	1f 91       	pop	r17
    3abc:	0f 91       	pop	r16
    3abe:	08 95       	ret
    3ac0:	ef cf       	rjmp	.-34     	;  0x3aa0
    3ac2:	08 95       	ret
    3ac4:	88 0f       	add	r24, r24
    3ac6:	80 93 ba 00 	sts	0x00BA, r24
    3aca:	08 95       	ret
    3acc:	48 2f       	mov	r20, r24
    3ace:	61 32       	cpi	r22, 0x21	; 33
    3ad0:	10 f0       	brcs	.+4      	;  0x3ad6
    3ad2:	81 e0       	ldi	r24, 0x01	; 1
    3ad4:	08 95       	ret
    3ad6:	80 91 69 06 	lds	r24, 0x0669
    3ada:	84 30       	cpi	r24, 0x04	; 4
    3adc:	11 f0       	breq	.+4      	;  0x3ae2
    3ade:	82 e0       	ldi	r24, 0x02	; 2
    3ae0:	08 95       	ret
    3ae2:	60 93 8f 06 	sts	0x068F, r22
    3ae6:	a2 e9       	ldi	r26, 0x92	; 146
    3ae8:	b6 e0       	ldi	r27, 0x06	; 6
    3aea:	84 2f       	mov	r24, r20
    3aec:	9c 01       	movw	r18, r24
    3aee:	f9 01       	movw	r30, r18
    3af0:	02 c0       	rjmp	.+4      	;  0x3af6
    3af2:	81 91       	ld	r24, Z+
    3af4:	8d 93       	st	X+, r24
    3af6:	8e 2f       	mov	r24, r30
    3af8:	84 1b       	sub	r24, r20
    3afa:	86 17       	cp	r24, r22
    3afc:	d0 f3       	brcs	.-12     	;  0x3af2
    3afe:	80 e0       	ldi	r24, 0x00	; 0
    3b00:	08 95       	ret
    3b02:	90 93 8d 06 	sts	0x068D, r25
    3b06:	80 93 8c 06 	sts	0x068C, r24
    3b0a:	08 95       	ret
    3b0c:	90 93 91 06 	sts	0x0691, r25
    3b10:	80 93 90 06 	sts	0x0690, r24
    3b14:	08 95       	ret
    3b16:	1f 92       	push	r1
    3b18:	0f 92       	push	r0
    3b1a:	0f b6       	in	r0, 0x3f	; 63
    3b1c:	0f 92       	push	r0
    3b1e:	11 24       	eor	r1, r1
    3b20:	2f 93       	push	r18
    3b22:	3f 93       	push	r19
    3b24:	4f 93       	push	r20
    3b26:	5f 93       	push	r21
    3b28:	6f 93       	push	r22
    3b2a:	7f 93       	push	r23
    3b2c:	8f 93       	push	r24
    3b2e:	9f 93       	push	r25
    3b30:	af 93       	push	r26
    3b32:	bf 93       	push	r27
    3b34:	ef 93       	push	r30
    3b36:	ff 93       	push	r31
    3b38:	80 91 b9 00 	lds	r24, 0x00B9
    3b3c:	90 e0       	ldi	r25, 0x00	; 0
    3b3e:	88 7f       	andi	r24, 0xF8	; 248
    3b40:	90 70       	andi	r25, 0x00	; 0
    3b42:	80 36       	cpi	r24, 0x60	; 96
    3b44:	91 05       	cpc	r25, r1
    3b46:	09 f4       	brne	.+2      	;  0x3b4a
    3b48:	f2 c0       	rjmp	.+484    	;  0x3d2e
    3b4a:	81 36       	cpi	r24, 0x61	; 97
    3b4c:	91 05       	cpc	r25, r1
    3b4e:	cc f5       	brge	.+114    	;  0x3bc2
    3b50:	88 32       	cpi	r24, 0x28	; 40
    3b52:	91 05       	cpc	r25, r1
    3b54:	09 f4       	brne	.+2      	;  0x3b58
    3b56:	7b c0       	rjmp	.+246    	;  0x3c4e
    3b58:	89 32       	cpi	r24, 0x29	; 41
    3b5a:	91 05       	cpc	r25, r1
    3b5c:	b4 f4       	brge	.+44     	;  0x3b8a
    3b5e:	80 31       	cpi	r24, 0x10	; 16
    3b60:	91 05       	cpc	r25, r1
    3b62:	09 f4       	brne	.+2      	;  0x3b66
    3b64:	6f c0       	rjmp	.+222    	;  0x3c44
    3b66:	81 31       	cpi	r24, 0x11	; 17
    3b68:	91 05       	cpc	r25, r1
    3b6a:	3c f4       	brge	.+14     	;  0x3b7a
    3b6c:	00 97       	sbiw	r24, 0x00	; 0
    3b6e:	09 f4       	brne	.+2      	;  0x3b72
    3b70:	47 c1       	rjmp	.+654    	;  0x3e00
    3b72:	08 97       	sbiw	r24, 0x08	; 8
    3b74:	09 f0       	breq	.+2      	;  0x3b78
    3b76:	4f c1       	rjmp	.+670    	;  0x3e16
    3b78:	65 c0       	rjmp	.+202    	;  0x3c44
    3b7a:	88 31       	cpi	r24, 0x18	; 24
    3b7c:	91 05       	cpc	r25, r1
    3b7e:	09 f4       	brne	.+2      	;  0x3b82
    3b80:	66 c0       	rjmp	.+204    	;  0x3c4e
    3b82:	80 97       	sbiw	r24, 0x20	; 32
    3b84:	09 f0       	breq	.+2      	;  0x3b88
    3b86:	47 c1       	rjmp	.+654    	;  0x3e16
    3b88:	82 c0       	rjmp	.+260    	;  0x3c8e
    3b8a:	80 34       	cpi	r24, 0x40	; 64
    3b8c:	91 05       	cpc	r25, r1
    3b8e:	09 f4       	brne	.+2      	;  0x3b92
    3b90:	a4 c0       	rjmp	.+328    	;  0x3cda
    3b92:	81 34       	cpi	r24, 0x41	; 65
    3b94:	91 05       	cpc	r25, r1
    3b96:	44 f4       	brge	.+16     	;  0x3ba8
    3b98:	80 33       	cpi	r24, 0x30	; 48
    3b9a:	91 05       	cpc	r25, r1
    3b9c:	09 f4       	brne	.+2      	;  0x3ba0
    3b9e:	82 c0       	rjmp	.+260    	;  0x3ca4
    3ba0:	c8 97       	sbiw	r24, 0x38	; 56
    3ba2:	09 f0       	breq	.+2      	;  0x3ba6
    3ba4:	38 c1       	rjmp	.+624    	;  0x3e16
    3ba6:	89 c0       	rjmp	.+274    	;  0x3cba
    3ba8:	80 35       	cpi	r24, 0x50	; 80
    3baa:	91 05       	cpc	r25, r1
    3bac:	09 f4       	brne	.+2      	;  0x3bb0
    3bae:	89 c0       	rjmp	.+274    	;  0x3cc2
    3bb0:	88 35       	cpi	r24, 0x58	; 88
    3bb2:	91 05       	cpc	r25, r1
    3bb4:	09 f4       	brne	.+2      	;  0x3bb8
    3bb6:	96 c0       	rjmp	.+300    	;  0x3ce4
    3bb8:	88 34       	cpi	r24, 0x48	; 72
    3bba:	91 05       	cpc	r25, r1
    3bbc:	09 f0       	breq	.+2      	;  0x3bc0
    3bbe:	2b c1       	rjmp	.+598    	;  0x3e16
    3bc0:	ae c0       	rjmp	.+348    	;  0x3d1e
    3bc2:	88 39       	cpi	r24, 0x98	; 152
    3bc4:	91 05       	cpc	r25, r1
    3bc6:	09 f4       	brne	.+2      	;  0x3bca
    3bc8:	13 c1       	rjmp	.+550    	;  0x3df0
    3bca:	89 39       	cpi	r24, 0x99	; 153
    3bcc:	91 05       	cpc	r25, r1
    3bce:	ec f4       	brge	.+58     	;  0x3c0a
    3bd0:	88 37       	cpi	r24, 0x78	; 120
    3bd2:	91 05       	cpc	r25, r1
    3bd4:	09 f4       	brne	.+2      	;  0x3bd8
    3bd6:	ab c0       	rjmp	.+342    	;  0x3d2e
    3bd8:	89 37       	cpi	r24, 0x79	; 121
    3bda:	91 05       	cpc	r25, r1
    3bdc:	4c f4       	brge	.+18     	;  0x3bf0
    3bde:	88 36       	cpi	r24, 0x68	; 104
    3be0:	91 05       	cpc	r25, r1
    3be2:	09 f4       	brne	.+2      	;  0x3be6
    3be4:	a4 c0       	rjmp	.+328    	;  0x3d2e
    3be6:	80 37       	cpi	r24, 0x70	; 112
    3be8:	91 05       	cpc	r25, r1
    3bea:	09 f0       	breq	.+2      	;  0x3bee
    3bec:	14 c1       	rjmp	.+552    	;  0x3e16
    3bee:	9f c0       	rjmp	.+318    	;  0x3d2e
    3bf0:	88 38       	cpi	r24, 0x88	; 136
    3bf2:	91 05       	cpc	r25, r1
    3bf4:	09 f4       	brne	.+2      	;  0x3bf8
    3bf6:	fc c0       	rjmp	.+504    	;  0x3df0
    3bf8:	80 39       	cpi	r24, 0x90	; 144
    3bfa:	91 05       	cpc	r25, r1
    3bfc:	09 f4       	brne	.+2      	;  0x3c00
    3bfe:	9d c0       	rjmp	.+314    	;  0x3d3a
    3c00:	80 38       	cpi	r24, 0x80	; 128
    3c02:	91 05       	cpc	r25, r1
    3c04:	09 f0       	breq	.+2      	;  0x3c08
    3c06:	07 c1       	rjmp	.+526    	;  0x3e16
    3c08:	98 c0       	rjmp	.+304    	;  0x3d3a
    3c0a:	80 3b       	cpi	r24, 0xB0	; 176
    3c0c:	91 05       	cpc	r25, r1
    3c0e:	09 f4       	brne	.+2      	;  0x3c12
    3c10:	c6 c0       	rjmp	.+396    	;  0x3d9e
    3c12:	81 3b       	cpi	r24, 0xB1	; 177
    3c14:	91 05       	cpc	r25, r1
    3c16:	4c f4       	brge	.+18     	;  0x3c2a
    3c18:	80 3a       	cpi	r24, 0xA0	; 160
    3c1a:	91 05       	cpc	r25, r1
    3c1c:	09 f4       	brne	.+2      	;  0x3c20
    3c1e:	9f c0       	rjmp	.+318    	;  0x3d5e
    3c20:	88 3a       	cpi	r24, 0xA8	; 168
    3c22:	91 05       	cpc	r25, r1
    3c24:	09 f0       	breq	.+2      	;  0x3c28
    3c26:	f7 c0       	rjmp	.+494    	;  0x3e16
    3c28:	ba c0       	rjmp	.+372    	;  0x3d9e
    3c2a:	80 3c       	cpi	r24, 0xC0	; 192
    3c2c:	91 05       	cpc	r25, r1
    3c2e:	09 f4       	brne	.+2      	;  0x3c32
    3c30:	e3 c0       	rjmp	.+454    	;  0x3df8
    3c32:	88 3c       	cpi	r24, 0xC8	; 200
    3c34:	91 05       	cpc	r25, r1
    3c36:	09 f4       	brne	.+2      	;  0x3c3a
    3c38:	df c0       	rjmp	.+446    	;  0x3df8
    3c3a:	88 3b       	cpi	r24, 0xB8	; 184
    3c3c:	91 05       	cpc	r25, r1
    3c3e:	09 f0       	breq	.+2      	;  0x3c42
    3c40:	ea c0       	rjmp	.+468    	;  0x3e16
    3c42:	c2 c0       	rjmp	.+388    	;  0x3dc8
    3c44:	80 91 44 06 	lds	r24, 0x0644
    3c48:	80 93 bb 00 	sts	0x00BB, r24
    3c4c:	cf c0       	rjmp	.+414    	;  0x3dec
    3c4e:	90 91 45 06 	lds	r25, 0x0645
    3c52:	80 91 46 06 	lds	r24, 0x0646
    3c56:	98 17       	cp	r25, r24
    3c58:	68 f4       	brcc	.+26     	;  0x3c74
    3c5a:	90 91 45 06 	lds	r25, 0x0645
    3c5e:	e9 2f       	mov	r30, r25
    3c60:	f0 e0       	ldi	r31, 0x00	; 0
    3c62:	e9 5b       	subi	r30, 0xB9	; 185
    3c64:	f9 4f       	sbci	r31, 0xF9	; 249
    3c66:	80 81       	ld	r24, Z
    3c68:	80 93 bb 00 	sts	0x00BB, r24
    3c6c:	9f 5f       	subi	r25, 0xFF	; 255
    3c6e:	90 93 45 06 	sts	0x0645, r25
    3c72:	bc c0       	rjmp	.+376    	;  0x3dec
    3c74:	80 91 67 06 	lds	r24, 0x0667
    3c78:	88 23       	and	r24, r24
    3c7a:	09 f4       	brne	.+2      	;  0x3c7e
    3c7c:	4b c0       	rjmp	.+150    	;  0x3d14
    3c7e:	85 ed       	ldi	r24, 0xD5	; 213
    3c80:	80 93 bc 00 	sts	0x00BC, r24
    3c84:	80 91 bc 00 	lds	r24, 0x00BC
    3c88:	84 fd       	sbrc	r24, 4
    3c8a:	fc cf       	rjmp	.-8      	;  0x3c84
    3c8c:	c2 c0       	rjmp	.+388    	;  0x3e12
    3c8e:	80 e2       	ldi	r24, 0x20	; 32
    3c90:	80 93 6a 06 	sts	0x066A, r24
    3c94:	85 ed       	ldi	r24, 0xD5	; 213
    3c96:	80 93 bc 00 	sts	0x00BC, r24
    3c9a:	80 91 bc 00 	lds	r24, 0x00BC
    3c9e:	84 fd       	sbrc	r24, 4
    3ca0:	fc cf       	rjmp	.-8      	;  0x3c9a
    3ca2:	b7 c0       	rjmp	.+366    	;  0x3e12
    3ca4:	80 e3       	ldi	r24, 0x30	; 48
    3ca6:	80 93 6a 06 	sts	0x066A, r24
    3caa:	85 ed       	ldi	r24, 0xD5	; 213
    3cac:	80 93 bc 00 	sts	0x00BC, r24
    3cb0:	80 91 bc 00 	lds	r24, 0x00BC
    3cb4:	84 fd       	sbrc	r24, 4
    3cb6:	fc cf       	rjmp	.-8      	;  0x3cb0
    3cb8:	ac c0       	rjmp	.+344    	;  0x3e12
    3cba:	88 e3       	ldi	r24, 0x38	; 56
    3cbc:	80 93 6a 06 	sts	0x066A, r24
    3cc0:	9b c0       	rjmp	.+310    	;  0x3df8
    3cc2:	80 91 45 06 	lds	r24, 0x0645
    3cc6:	90 91 bb 00 	lds	r25, 0x00BB
    3cca:	e8 2f       	mov	r30, r24
    3ccc:	f0 e0       	ldi	r31, 0x00	; 0
    3cce:	e9 5b       	subi	r30, 0xB9	; 185
    3cd0:	f9 4f       	sbci	r31, 0xF9	; 249
    3cd2:	90 83       	st	Z, r25
    3cd4:	8f 5f       	subi	r24, 0xFF	; 255
    3cd6:	80 93 45 06 	sts	0x0645, r24
    3cda:	90 91 45 06 	lds	r25, 0x0645
    3cde:	80 91 46 06 	lds	r24, 0x0646
    3ce2:	82 c0       	rjmp	.+260    	;  0x3de8
    3ce4:	80 91 45 06 	lds	r24, 0x0645
    3ce8:	90 91 bb 00 	lds	r25, 0x00BB
    3cec:	e8 2f       	mov	r30, r24
    3cee:	f0 e0       	ldi	r31, 0x00	; 0
    3cf0:	e9 5b       	subi	r30, 0xB9	; 185
    3cf2:	f9 4f       	sbci	r31, 0xF9	; 249
    3cf4:	90 83       	st	Z, r25
    3cf6:	8f 5f       	subi	r24, 0xFF	; 255
    3cf8:	80 93 45 06 	sts	0x0645, r24
    3cfc:	80 91 67 06 	lds	r24, 0x0667
    3d00:	88 23       	and	r24, r24
    3d02:	41 f0       	breq	.+16     	;  0x3d14
    3d04:	85 ed       	ldi	r24, 0xD5	; 213
    3d06:	80 93 bc 00 	sts	0x00BC, r24
    3d0a:	80 91 bc 00 	lds	r24, 0x00BC
    3d0e:	84 fd       	sbrc	r24, 4
    3d10:	fc cf       	rjmp	.-8      	;  0x3d0a
    3d12:	7f c0       	rjmp	.+254    	;  0x3e12
    3d14:	81 e0       	ldi	r24, 0x01	; 1
    3d16:	80 93 68 06 	sts	0x0668, r24
    3d1a:	84 ea       	ldi	r24, 0xA4	; 164
    3d1c:	6e c0       	rjmp	.+220    	;  0x3dfa
    3d1e:	85 ed       	ldi	r24, 0xD5	; 213
    3d20:	80 93 bc 00 	sts	0x00BC, r24
    3d24:	80 91 bc 00 	lds	r24, 0x00BC
    3d28:	84 fd       	sbrc	r24, 4
    3d2a:	fc cf       	rjmp	.-8      	;  0x3d24
    3d2c:	72 c0       	rjmp	.+228    	;  0x3e12
    3d2e:	83 e0       	ldi	r24, 0x03	; 3
    3d30:	80 93 69 06 	sts	0x0669, r24
    3d34:	10 92 6b 06 	sts	0x066B, r1
    3d38:	59 c0       	rjmp	.+178    	;  0x3dec
    3d3a:	80 91 6b 06 	lds	r24, 0x066B
    3d3e:	80 32       	cpi	r24, 0x20	; 32
    3d40:	08 f0       	brcs	.+2      	;  0x3d44
    3d42:	56 c0       	rjmp	.+172    	;  0x3df0
    3d44:	80 91 6b 06 	lds	r24, 0x066B
    3d48:	90 91 bb 00 	lds	r25, 0x00BB
    3d4c:	e8 2f       	mov	r30, r24
    3d4e:	f0 e0       	ldi	r31, 0x00	; 0
    3d50:	e4 59       	subi	r30, 0x94	; 148
    3d52:	f9 4f       	sbci	r31, 0xF9	; 249
    3d54:	90 83       	st	Z, r25
    3d56:	8f 5f       	subi	r24, 0xFF	; 255
    3d58:	80 93 6b 06 	sts	0x066B, r24
    3d5c:	47 c0       	rjmp	.+142    	;  0x3dec
    3d5e:	80 91 6b 06 	lds	r24, 0x066B
    3d62:	80 32       	cpi	r24, 0x20	; 32
    3d64:	30 f4       	brcc	.+12     	;  0x3d72
    3d66:	e0 91 6b 06 	lds	r30, 0x066B
    3d6a:	f0 e0       	ldi	r31, 0x00	; 0
    3d6c:	e4 59       	subi	r30, 0x94	; 148
    3d6e:	f9 4f       	sbci	r31, 0xF9	; 249
    3d70:	10 82       	st	Z, r1
    3d72:	85 ed       	ldi	r24, 0xD5	; 213
    3d74:	80 93 bc 00 	sts	0x00BC, r24
    3d78:	80 91 bc 00 	lds	r24, 0x00BC
    3d7c:	84 fd       	sbrc	r24, 4
    3d7e:	fc cf       	rjmp	.-8      	;  0x3d78
    3d80:	10 92 69 06 	sts	0x0669, r1
    3d84:	60 91 6b 06 	lds	r22, 0x066B
    3d88:	e0 91 8c 06 	lds	r30, 0x068C
    3d8c:	f0 91 8d 06 	lds	r31, 0x068D
    3d90:	8c e6       	ldi	r24, 0x6C	; 108
    3d92:	96 e0       	ldi	r25, 0x06	; 6
    3d94:	70 e0       	ldi	r23, 0x00	; 0
    3d96:	09 95       	icall
    3d98:	10 92 6b 06 	sts	0x066B, r1
    3d9c:	2d c0       	rjmp	.+90     	;  0x3df8
    3d9e:	84 e0       	ldi	r24, 0x04	; 4
    3da0:	80 93 69 06 	sts	0x0669, r24
    3da4:	10 92 8e 06 	sts	0x068E, r1
    3da8:	10 92 8f 06 	sts	0x068F, r1
    3dac:	e0 91 90 06 	lds	r30, 0x0690
    3db0:	f0 91 91 06 	lds	r31, 0x0691
    3db4:	09 95       	icall
    3db6:	80 91 8f 06 	lds	r24, 0x068F
    3dba:	88 23       	and	r24, r24
    3dbc:	29 f4       	brne	.+10     	;  0x3dc8
    3dbe:	81 e0       	ldi	r24, 0x01	; 1
    3dc0:	80 93 8f 06 	sts	0x068F, r24
    3dc4:	10 92 92 06 	sts	0x0692, r1
    3dc8:	90 91 8e 06 	lds	r25, 0x068E
    3dcc:	e9 2f       	mov	r30, r25
    3dce:	f0 e0       	ldi	r31, 0x00	; 0
    3dd0:	ee 56       	subi	r30, 0x6E	; 110
    3dd2:	f9 4f       	sbci	r31, 0xF9	; 249
    3dd4:	80 81       	ld	r24, Z
    3dd6:	80 93 bb 00 	sts	0x00BB, r24
    3dda:	9f 5f       	subi	r25, 0xFF	; 255
    3ddc:	90 93 8e 06 	sts	0x068E, r25
    3de0:	90 91 8e 06 	lds	r25, 0x068E
    3de4:	80 91 8f 06 	lds	r24, 0x068F
    3de8:	98 17       	cp	r25, r24
    3dea:	10 f4       	brcc	.+4      	;  0x3df0
    3dec:	85 ec       	ldi	r24, 0xC5	; 197
    3dee:	01 c0       	rjmp	.+2      	;  0x3df2
    3df0:	85 e8       	ldi	r24, 0x85	; 133
    3df2:	80 93 bc 00 	sts	0x00BC, r24
    3df6:	0f c0       	rjmp	.+30     	;  0x3e16
    3df8:	85 ec       	ldi	r24, 0xC5	; 197
    3dfa:	80 93 bc 00 	sts	0x00BC, r24
    3dfe:	09 c0       	rjmp	.+18     	;  0x3e12
    3e00:	10 92 6a 06 	sts	0x066A, r1
    3e04:	85 ed       	ldi	r24, 0xD5	; 213
    3e06:	80 93 bc 00 	sts	0x00BC, r24
    3e0a:	80 91 bc 00 	lds	r24, 0x00BC
    3e0e:	84 fd       	sbrc	r24, 4
    3e10:	fc cf       	rjmp	.-8      	;  0x3e0a
    3e12:	10 92 69 06 	sts	0x0669, r1
    3e16:	ff 91       	pop	r31
    3e18:	ef 91       	pop	r30
    3e1a:	bf 91       	pop	r27
    3e1c:	af 91       	pop	r26
    3e1e:	9f 91       	pop	r25
    3e20:	8f 91       	pop	r24
    3e22:	7f 91       	pop	r23
    3e24:	6f 91       	pop	r22
    3e26:	5f 91       	pop	r21
    3e28:	4f 91       	pop	r20
    3e2a:	3f 91       	pop	r19
    3e2c:	2f 91       	pop	r18
    3e2e:	0f 90       	pop	r0
    3e30:	0f be       	out	0x3f, r0	; 63
    3e32:	0f 90       	pop	r0
    3e34:	1f 90       	pop	r1
    3e36:	18 95       	reti
    3e38:	10 92 69 06 	sts	0x0669, r1
    3e3c:	81 e0       	ldi	r24, 0x01	; 1
    3e3e:	80 93 67 06 	sts	0x0667, r24
    3e42:	10 92 68 06 	sts	0x0668, r1
    3e46:	82 e1       	ldi	r24, 0x12	; 18
    3e48:	61 e0       	ldi	r22, 0x01	; 1
    3e4a:	0e 94 e5 28 	call	0x51ca	;  0x51ca
    3e4e:	83 e1       	ldi	r24, 0x13	; 19
    3e50:	61 e0       	ldi	r22, 0x01	; 1
    3e52:	0e 94 e5 28 	call	0x51ca	;  0x51ca
    3e56:	e9 eb       	ldi	r30, 0xB9	; 185
    3e58:	f0 e0       	ldi	r31, 0x00	; 0
    3e5a:	80 81       	ld	r24, Z
    3e5c:	8e 7f       	andi	r24, 0xFE	; 254
    3e5e:	80 83       	st	Z, r24
    3e60:	80 81       	ld	r24, Z
    3e62:	8d 7f       	andi	r24, 0xFD	; 253
    3e64:	80 83       	st	Z, r24
    3e66:	88 e4       	ldi	r24, 0x48	; 72
    3e68:	80 93 b8 00 	sts	0x00B8, r24
    3e6c:	85 e4       	ldi	r24, 0x45	; 69
    3e6e:	80 93 bc 00 	sts	0x00BC, r24
    3e72:	08 95       	ret
    3e74:	1f 92       	push	r1
    3e76:	0f 92       	push	r0
    3e78:	0f b6       	in	r0, 0x3f	; 63
    3e7a:	0f 92       	push	r0
    3e7c:	11 24       	eor	r1, r1
    3e7e:	2f 93       	push	r18
    3e80:	3f 93       	push	r19
    3e82:	4f 93       	push	r20
    3e84:	5f 93       	push	r21
    3e86:	6f 93       	push	r22
    3e88:	7f 93       	push	r23
    3e8a:	8f 93       	push	r24
    3e8c:	9f 93       	push	r25
    3e8e:	af 93       	push	r26
    3e90:	bf 93       	push	r27
    3e92:	ef 93       	push	r30
    3e94:	ff 93       	push	r31
    3e96:	e0 91 b2 06 	lds	r30, 0x06B2
    3e9a:	f0 91 b3 06 	lds	r31, 0x06B3
    3e9e:	09 95       	icall
    3ea0:	ff 91       	pop	r31
    3ea2:	ef 91       	pop	r30
    3ea4:	bf 91       	pop	r27
    3ea6:	af 91       	pop	r26
    3ea8:	9f 91       	pop	r25
    3eaa:	8f 91       	pop	r24
    3eac:	7f 91       	pop	r23
    3eae:	6f 91       	pop	r22
    3eb0:	5f 91       	pop	r21
    3eb2:	4f 91       	pop	r20
    3eb4:	3f 91       	pop	r19
    3eb6:	2f 91       	pop	r18
    3eb8:	0f 90       	pop	r0
    3eba:	0f be       	out	0x3f, r0	; 63
    3ebc:	0f 90       	pop	r0
    3ebe:	1f 90       	pop	r1
    3ec0:	18 95       	reti
    3ec2:	90 93 b3 06 	sts	0x06B3, r25
    3ec6:	80 93 b2 06 	sts	0x06B2, r24
    3eca:	89 2b       	or	r24, r25
    3ecc:	21 f0       	breq	.+8      	;  0x3ed6
    3ece:	80 91 70 00 	lds	r24, 0x0070
    3ed2:	82 60       	ori	r24, 0x02	; 2
    3ed4:	03 c0       	rjmp	.+6      	;  0x3edc
    3ed6:	80 91 70 00 	lds	r24, 0x0070
    3eda:	8d 7f       	andi	r24, 0xFD	; 253
    3edc:	80 93 70 00 	sts	0x0070, r24
    3ee0:	08 95       	ret
    3ee2:	61 15       	cp	r22, r1
    3ee4:	71 05       	cpc	r23, r1
    3ee6:	81 05       	cpc	r24, r1
    3ee8:	91 05       	cpc	r25, r1
    3eea:	21 f4       	brne	.+8      	;  0x3ef4
    3eec:	61 e0       	ldi	r22, 0x01	; 1
    3eee:	70 e0       	ldi	r23, 0x00	; 0
    3ef0:	80 e0       	ldi	r24, 0x00	; 0
    3ef2:	90 e0       	ldi	r25, 0x00	; 0
    3ef4:	9b 01       	movw	r18, r22
    3ef6:	ac 01       	movw	r20, r24
    3ef8:	74 e0       	ldi	r23, 0x04	; 4
    3efa:	22 0f       	add	r18, r18
    3efc:	33 1f       	adc	r19, r19
    3efe:	44 1f       	adc	r20, r20
    3f00:	55 1f       	adc	r21, r21
    3f02:	7a 95       	dec	r23
    3f04:	d1 f7       	brne	.-12     	;  0x3efa
    3f06:	da 01       	movw	r26, r20
    3f08:	c9 01       	movw	r24, r18
    3f0a:	b6 95       	lsr	r27
    3f0c:	a7 95       	ror	r26
    3f0e:	97 95       	ror	r25
    3f10:	87 95       	ror	r24
    3f12:	81 30       	cpi	r24, 0x01	; 1
    3f14:	61 e0       	ldi	r22, 0x01	; 1
    3f16:	96 07       	cpc	r25, r22
    3f18:	60 e0       	ldi	r22, 0x00	; 0
    3f1a:	a6 07       	cpc	r26, r22
    3f1c:	60 e0       	ldi	r22, 0x00	; 0
    3f1e:	b6 07       	cpc	r27, r22
    3f20:	20 f4       	brcc	.+8      	;  0x3f2a
    3f22:	68 2f       	mov	r22, r24
    3f24:	61 50       	subi	r22, 0x01	; 1
    3f26:	91 e0       	ldi	r25, 0x01	; 1
    3f28:	6b c0       	rjmp	.+214    	;  0x4000
    3f2a:	81 30       	cpi	r24, 0x01	; 1
    3f2c:	68 e0       	ldi	r22, 0x08	; 8
    3f2e:	96 07       	cpc	r25, r22
    3f30:	60 e0       	ldi	r22, 0x00	; 0
    3f32:	a6 07       	cpc	r26, r22
    3f34:	60 e0       	ldi	r22, 0x00	; 0
    3f36:	b6 07       	cpc	r27, r22
    3f38:	58 f4       	brcc	.+22     	;  0x3f50
    3f3a:	f4 e0       	ldi	r31, 0x04	; 4
    3f3c:	56 95       	lsr	r21
    3f3e:	47 95       	ror	r20
    3f40:	37 95       	ror	r19
    3f42:	27 95       	ror	r18
    3f44:	fa 95       	dec	r31
    3f46:	d1 f7       	brne	.-12     	;  0x3f3c
    3f48:	62 2f       	mov	r22, r18
    3f4a:	61 50       	subi	r22, 0x01	; 1
    3f4c:	92 e0       	ldi	r25, 0x02	; 2
    3f4e:	58 c0       	rjmp	.+176    	;  0x4000
    3f50:	81 30       	cpi	r24, 0x01	; 1
    3f52:	60 e2       	ldi	r22, 0x20	; 32
    3f54:	96 07       	cpc	r25, r22
    3f56:	60 e0       	ldi	r22, 0x00	; 0
    3f58:	a6 07       	cpc	r26, r22
    3f5a:	60 e0       	ldi	r22, 0x00	; 0
    3f5c:	b6 07       	cpc	r27, r22
    3f5e:	58 f4       	brcc	.+22     	;  0x3f76
    3f60:	e6 e0       	ldi	r30, 0x06	; 6
    3f62:	56 95       	lsr	r21
    3f64:	47 95       	ror	r20
    3f66:	37 95       	ror	r19
    3f68:	27 95       	ror	r18
    3f6a:	ea 95       	dec	r30
    3f6c:	d1 f7       	brne	.-12     	;  0x3f62
    3f6e:	62 2f       	mov	r22, r18
    3f70:	61 50       	subi	r22, 0x01	; 1
    3f72:	93 e0       	ldi	r25, 0x03	; 3
    3f74:	45 c0       	rjmp	.+138    	;  0x4000
    3f76:	81 30       	cpi	r24, 0x01	; 1
    3f78:	60 e4       	ldi	r22, 0x40	; 64
    3f7a:	96 07       	cpc	r25, r22
    3f7c:	60 e0       	ldi	r22, 0x00	; 0
    3f7e:	a6 07       	cpc	r26, r22
    3f80:	60 e0       	ldi	r22, 0x00	; 0
    3f82:	b6 07       	cpc	r27, r22
    3f84:	58 f4       	brcc	.+22     	;  0x3f9c
    3f86:	77 e0       	ldi	r23, 0x07	; 7
    3f88:	56 95       	lsr	r21
    3f8a:	47 95       	ror	r20
    3f8c:	37 95       	ror	r19
    3f8e:	27 95       	ror	r18
    3f90:	7a 95       	dec	r23
    3f92:	d1 f7       	brne	.-12     	;  0x3f88
    3f94:	62 2f       	mov	r22, r18
    3f96:	61 50       	subi	r22, 0x01	; 1
    3f98:	94 e0       	ldi	r25, 0x04	; 4
    3f9a:	32 c0       	rjmp	.+100    	;  0x4000
    3f9c:	81 30       	cpi	r24, 0x01	; 1
    3f9e:	60 e8       	ldi	r22, 0x80	; 128
    3fa0:	96 07       	cpc	r25, r22
    3fa2:	60 e0       	ldi	r22, 0x00	; 0
    3fa4:	a6 07       	cpc	r26, r22
    3fa6:	60 e0       	ldi	r22, 0x00	; 0
    3fa8:	b6 07       	cpc	r27, r22
    3faa:	40 f4       	brcc	.+16     	;  0x3fbc
    3fac:	bb 27       	eor	r27, r27
    3fae:	a5 2f       	mov	r26, r21
    3fb0:	94 2f       	mov	r25, r20
    3fb2:	83 2f       	mov	r24, r19
    3fb4:	68 2f       	mov	r22, r24
    3fb6:	61 50       	subi	r22, 0x01	; 1
    3fb8:	95 e0       	ldi	r25, 0x05	; 5
    3fba:	22 c0       	rjmp	.+68     	;  0x4000
    3fbc:	81 30       	cpi	r24, 0x01	; 1
    3fbe:	60 e0       	ldi	r22, 0x00	; 0
    3fc0:	96 07       	cpc	r25, r22
    3fc2:	61 e0       	ldi	r22, 0x01	; 1
    3fc4:	a6 07       	cpc	r26, r22
    3fc6:	60 e0       	ldi	r22, 0x00	; 0
    3fc8:	b6 07       	cpc	r27, r22
    3fca:	40 f4       	brcc	.+16     	;  0x3fdc
    3fcc:	89 2f       	mov	r24, r25
    3fce:	9a 2f       	mov	r25, r26
    3fd0:	ab 2f       	mov	r26, r27
    3fd2:	bb 27       	eor	r27, r27
    3fd4:	68 2f       	mov	r22, r24
    3fd6:	61 50       	subi	r22, 0x01	; 1
    3fd8:	96 e0       	ldi	r25, 0x06	; 6
    3fda:	12 c0       	rjmp	.+36     	;  0x4000
    3fdc:	81 50       	subi	r24, 0x01	; 1
    3fde:	90 40       	sbci	r25, 0x00	; 0
    3fe0:	a4 40       	sbci	r26, 0x04	; 4
    3fe2:	b0 40       	sbci	r27, 0x00	; 0
    3fe4:	18 f0       	brcs	.+6      	;  0x3fec
    3fe6:	97 e0       	ldi	r25, 0x07	; 7
    3fe8:	6f ef       	ldi	r22, 0xFF	; 255
    3fea:	0a c0       	rjmp	.+20     	;  0x4000
    3fec:	8b e0       	ldi	r24, 0x0B	; 11
    3fee:	56 95       	lsr	r21
    3ff0:	47 95       	ror	r20
    3ff2:	37 95       	ror	r19
    3ff4:	27 95       	ror	r18
    3ff6:	8a 95       	dec	r24
    3ff8:	d1 f7       	brne	.-12     	;  0x3fee
    3ffa:	62 2f       	mov	r22, r18
    3ffc:	61 50       	subi	r22, 0x01	; 1
    3ffe:	97 e0       	ldi	r25, 0x07	; 7
    4000:	10 92 b1 00 	sts	0x00B1, r1
    4004:	10 92 b0 00 	sts	0x00B0, r1
    4008:	10 92 b2 00 	sts	0x00B2, r1
    400c:	80 91 b6 00 	lds	r24, 0x00B6
    4010:	8f 7d       	andi	r24, 0xDF	; 223
    4012:	80 93 b6 00 	sts	0x00B6, r24
    4016:	60 93 b3 00 	sts	0x00B3, r22
    401a:	80 91 b4 06 	lds	r24, 0x06B4
    401e:	88 23       	and	r24, r24
    4020:	11 f4       	brne	.+4      	;  0x4026
    4022:	82 e0       	ldi	r24, 0x02	; 2
    4024:	01 c0       	rjmp	.+2      	;  0x4028
    4026:	82 e4       	ldi	r24, 0x42	; 66
    4028:	80 93 b0 00 	sts	0x00B0, r24
    402c:	90 93 b1 00 	sts	0x00B1, r25
    4030:	08 95       	ret
    4032:	cf 93       	push	r28
    4034:	df 93       	push	r29
    4036:	fc 01       	movw	r30, r24
    4038:	ee 59       	subi	r30, 0x9E	; 158
    403a:	ff 4f       	sbci	r31, 0xFF	; 255
    403c:	a0 81       	ld	r26, Z
    403e:	b1 81       	ldd	r27, Z+1	; 0x01
    4040:	e2 56       	subi	r30, 0x62	; 98
    4042:	f0 40       	sbci	r31, 0x00	; 0
    4044:	aa 30       	cpi	r26, 0x0A	; 10
    4046:	b1 05       	cpc	r27, r1
    4048:	c4 f5       	brge	.+112    	;  0x40ba
    404a:	eb 01       	movw	r28, r22
    404c:	20 e0       	ldi	r18, 0x00	; 0
    404e:	30 e0       	ldi	r19, 0x00	; 0
    4050:	70 e0       	ldi	r23, 0x00	; 0
    4052:	1d c0       	rjmp	.+58     	;  0x408e
    4054:	68 81       	ld	r22, Y
    4056:	6d 32       	cpi	r22, 0x2D	; 45
    4058:	11 f4       	brne	.+4      	;  0x405e
    405a:	71 e0       	ldi	r23, 0x01	; 1
    405c:	17 c0       	rjmp	.+46     	;  0x408c
    405e:	86 2f       	mov	r24, r22
    4060:	80 53       	subi	r24, 0x30	; 48
    4062:	8a 30       	cpi	r24, 0x0A	; 10
    4064:	98 f4       	brcc	.+38     	;  0x408c
    4066:	c9 01       	movw	r24, r18
    4068:	88 0f       	add	r24, r24
    406a:	99 1f       	adc	r25, r25
    406c:	88 0f       	add	r24, r24
    406e:	99 1f       	adc	r25, r25
    4070:	88 0f       	add	r24, r24
    4072:	99 1f       	adc	r25, r25
    4074:	22 0f       	add	r18, r18
    4076:	33 1f       	adc	r19, r19
    4078:	82 0f       	add	r24, r18
    407a:	93 1f       	adc	r25, r19
    407c:	26 2f       	mov	r18, r22
    407e:	33 27       	eor	r19, r19
    4080:	27 fd       	sbrc	r18, 7
    4082:	30 95       	com	r19
    4084:	20 53       	subi	r18, 0x30	; 48
    4086:	30 40       	sbci	r19, 0x00	; 0
    4088:	28 0f       	add	r18, r24
    408a:	39 1f       	adc	r19, r25
    408c:	21 96       	adiw	r28, 0x01	; 1
    408e:	c4 17       	cp	r28, r20
    4090:	d5 07       	cpc	r29, r21
    4092:	01 f7       	brne	.-64     	;  0x4054
    4094:	77 23       	and	r23, r23
    4096:	19 f0       	breq	.+6      	;  0x409e
    4098:	30 95       	com	r19
    409a:	21 95       	neg	r18
    409c:	3f 4f       	sbci	r19, 0xFF	; 255
    409e:	97 96       	adiw	r26, 0x27	; 39
    40a0:	aa 0f       	add	r26, r26
    40a2:	bb 1f       	adc	r27, r27
    40a4:	ae 0f       	add	r26, r30
    40a6:	bf 1f       	adc	r27, r31
    40a8:	2d 93       	st	X+, r18
    40aa:	3c 93       	st	X, r19
    40ac:	ee 59       	subi	r30, 0x9E	; 158
    40ae:	ff 4f       	sbci	r31, 0xFF	; 255
    40b0:	80 81       	ld	r24, Z
    40b2:	91 81       	ldd	r25, Z+1	; 0x01
    40b4:	01 96       	adiw	r24, 0x01	; 1
    40b6:	91 83       	std	Z+1, r25	; 0x01
    40b8:	80 83       	st	Z, r24
    40ba:	df 91       	pop	r29
    40bc:	cf 91       	pop	r28
    40be:	08 95       	ret
    40c0:	cf 93       	push	r28
    40c2:	df 93       	push	r29
    40c4:	ec 01       	movw	r28, r24
    40c6:	c4 5b       	subi	r28, 0xB4	; 180
    40c8:	df 4f       	sbci	r29, 0xFF	; 255
    40ca:	e8 81       	ld	r30, Y
    40cc:	f9 81       	ldd	r31, Y+1	; 0x01
    40ce:	cc 54       	subi	r28, 0x4C	; 76
    40d0:	d0 40       	sbci	r29, 0x00	; 0
    40d2:	30 97       	sbiw	r30, 0x00	; 0
    40d4:	11 f0       	breq	.+4      	;  0x40da
    40d6:	09 95       	icall
    40d8:	05 c0       	rjmp	.+10     	;  0x40e4
    40da:	eb 81       	ldd	r30, Y+3	; 0x03
    40dc:	fc 81       	ldd	r31, Y+4	; 0x04
    40de:	ce 01       	movw	r24, r28
    40e0:	08 96       	adiw	r24, 0x08	; 8
    40e2:	09 95       	icall
    40e4:	c4 5b       	subi	r28, 0xB4	; 180
    40e6:	df 4f       	sbci	r29, 0xFF	; 255
    40e8:	19 82       	std	Y+1, r1	; 0x01
    40ea:	18 82       	st	Y, r1
    40ec:	66 96       	adiw	r28, 0x16	; 22
    40ee:	19 82       	std	Y+1, r1	; 0x01
    40f0:	18 82       	st	Y, r1
    40f2:	df 91       	pop	r29
    40f4:	cf 91       	pop	r28
    40f6:	08 95       	ret
    40f8:	fc 01       	movw	r30, r24
    40fa:	74 83       	std	Z+4, r23	; 0x04
    40fc:	63 83       	std	Z+3, r22	; 0x03
    40fe:	08 95       	ret
    4100:	cf 92       	push	r12
    4102:	df 92       	push	r13
    4104:	ef 92       	push	r14
    4106:	ff 92       	push	r15
    4108:	0f 93       	push	r16
    410a:	1f 93       	push	r17
    410c:	cf 93       	push	r28
    410e:	df 93       	push	r29
    4110:	dc 01       	movw	r26, r24
    4112:	6b 01       	movw	r12, r22
    4114:	8a 01       	movw	r16, r20
    4116:	06 1b       	sub	r16, r22
    4118:	17 0b       	sbc	r17, r23
    411a:	fc 01       	movw	r30, r24
    411c:	e4 5b       	subi	r30, 0xB4	; 180
    411e:	ff 4f       	sbci	r31, 0xFF	; 255
    4120:	11 82       	std	Z+1, r1	; 0x01
    4122:	10 82       	st	Z, r1
    4124:	cd 91       	ld	r28, X+
    4126:	dc 91       	ld	r29, X
    4128:	7f 01       	movw	r14, r30
    412a:	0c c0       	rjmp	.+24     	;  0x4144
    412c:	c6 01       	movw	r24, r12
    412e:	a8 01       	movw	r20, r16
    4130:	0e 94 21 01 	call	0x242	;  0x242
    4134:	00 97       	sbiw	r24, 0x00	; 0
    4136:	29 f4       	brne	.+10     	;  0x4142
    4138:	8a 81       	ldd	r24, Y+2	; 0x02
    413a:	9b 81       	ldd	r25, Y+3	; 0x03
    413c:	f7 01       	movw	r30, r14
    413e:	91 83       	std	Z+1, r25	; 0x01
    4140:	80 83       	st	Z, r24
    4142:	24 96       	adiw	r28, 0x04	; 4
    4144:	f7 01       	movw	r30, r14
    4146:	80 81       	ld	r24, Z
    4148:	91 81       	ldd	r25, Z+1	; 0x01
    414a:	89 2b       	or	r24, r25
    414c:	29 f4       	brne	.+10     	;  0x4158
    414e:	68 81       	ld	r22, Y
    4150:	79 81       	ldd	r23, Y+1	; 0x01
    4152:	61 15       	cp	r22, r1
    4154:	71 05       	cpc	r23, r1
    4156:	51 f7       	brne	.-44     	;  0x412c
    4158:	df 91       	pop	r29
    415a:	cf 91       	pop	r28
    415c:	1f 91       	pop	r17
    415e:	0f 91       	pop	r16
    4160:	ff 90       	pop	r15
    4162:	ef 90       	pop	r14
    4164:	df 90       	pop	r13
    4166:	cf 90       	pop	r12
    4168:	08 95       	ret
    416a:	af 92       	push	r10
    416c:	bf 92       	push	r11
    416e:	cf 92       	push	r12
    4170:	df 92       	push	r13
    4172:	ef 92       	push	r14
    4174:	ff 92       	push	r15
    4176:	0f 93       	push	r16
    4178:	1f 93       	push	r17
    417a:	cf 93       	push	r28
    417c:	df 93       	push	r29
    417e:	7c 01       	movw	r14, r24
    4180:	ec 01       	movw	r28, r24
    4182:	28 96       	adiw	r28, 0x08	; 8
    4184:	29 e4       	ldi	r18, 0x49	; 73
    4186:	30 e0       	ldi	r19, 0x00	; 0
    4188:	e2 0e       	add	r14, r18
    418a:	f3 1e       	adc	r15, r19
    418c:	f7 01       	movw	r30, r14
    418e:	80 81       	ld	r24, Z
    4190:	27 eb       	ldi	r18, 0xB7	; 183
    4192:	3f ef       	ldi	r19, 0xFF	; 255
    4194:	e2 0e       	add	r14, r18
    4196:	f3 1e       	adc	r15, r19
    4198:	c8 2e       	mov	r12, r24
    419a:	dd 24       	eor	r13, r13
    419c:	89 e0       	ldi	r24, 0x09	; 9
    419e:	90 e0       	ldi	r25, 0x00	; 0
    41a0:	c8 0e       	add	r12, r24
    41a2:	d9 1e       	adc	r13, r25
    41a4:	ce 0c       	add	r12, r14
    41a6:	df 1c       	adc	r13, r15
    41a8:	ec e4       	ldi	r30, 0x4C	; 76
    41aa:	f0 e0       	ldi	r31, 0x00	; 0
    41ac:	ee 0e       	add	r14, r30
    41ae:	ff 1e       	adc	r15, r31
    41b0:	f7 01       	movw	r30, r14
    41b2:	11 82       	std	Z+1, r1	; 0x01
    41b4:	10 82       	st	Z, r1
    41b6:	26 e1       	ldi	r18, 0x16	; 22
    41b8:	30 e0       	ldi	r19, 0x00	; 0
    41ba:	e2 0e       	add	r14, r18
    41bc:	f3 1e       	adc	r15, r19
    41be:	f7 01       	movw	r30, r14
    41c0:	11 82       	std	Z+1, r1	; 0x01
    41c2:	10 82       	st	Z, r1
    41c4:	2e e9       	ldi	r18, 0x9E	; 158
    41c6:	3f ef       	ldi	r19, 0xFF	; 255
    41c8:	e2 0e       	add	r14, r18
    41ca:	f3 1e       	adc	r15, r19
    41cc:	01 c0       	rjmp	.+2      	;  0x41d0
    41ce:	21 96       	adiw	r28, 0x01	; 1
    41d0:	cc 15       	cp	r28, r12
    41d2:	dd 05       	cpc	r29, r13
    41d4:	09 f4       	brne	.+2      	;  0x41d8
    41d6:	37 c1       	rjmp	.+622    	;  0x4446
    41d8:	88 81       	ld	r24, Y
    41da:	89 30       	cpi	r24, 0x09	; 9
    41dc:	c1 f3       	breq	.-16     	;  0x41ce
    41de:	80 32       	cpi	r24, 0x20	; 32
    41e0:	b1 f3       	breq	.-20     	;  0x41ce
    41e2:	be 01       	movw	r22, r28
    41e4:	8b 35       	cpi	r24, 0x5B	; 91
    41e6:	24 f0       	brlt	.+8      	;  0x41f0
    41e8:	81 56       	subi	r24, 0x61	; 97
    41ea:	8a 31       	cpi	r24, 0x1A	; 26
    41ec:	20 f0       	brcs	.+8      	;  0x41f6
    41ee:	2b c1       	rjmp	.+598    	;  0x4446
    41f0:	81 34       	cpi	r24, 0x41	; 65
    41f2:	0c f4       	brge	.+2      	;  0x41f6
    41f4:	28 c1       	rjmp	.+592    	;  0x4446
    41f6:	8e 01       	movw	r16, r28
    41f8:	0f 5f       	subi	r16, 0xFF	; 255
    41fa:	1f 4f       	sbci	r17, 0xFF	; 255
    41fc:	0c 15       	cp	r16, r12
    41fe:	1d 05       	cpc	r17, r13
    4200:	09 f4       	brne	.+2      	;  0x4204
    4202:	21 c1       	rjmp	.+578    	;  0x4446
    4204:	f8 01       	movw	r30, r16
    4206:	80 81       	ld	r24, Z
    4208:	8a 30       	cpi	r24, 0x0A	; 10
    420a:	c1 f0       	breq	.+48     	;  0x423c
    420c:	8b 30       	cpi	r24, 0x0B	; 11
    420e:	2c f4       	brge	.+10     	;  0x421a
    4210:	88 23       	and	r24, r24
    4212:	a1 f0       	breq	.+40     	;  0x423c
    4214:	89 30       	cpi	r24, 0x09	; 9
    4216:	31 f4       	brne	.+12     	;  0x4224
    4218:	c3 c0       	rjmp	.+390    	;  0x43a0
    421a:	8d 30       	cpi	r24, 0x0D	; 13
    421c:	79 f0       	breq	.+30     	;  0x423c
    421e:	80 32       	cpi	r24, 0x20	; 32
    4220:	09 f4       	brne	.+2      	;  0x4224
    4222:	be c0       	rjmp	.+380    	;  0x43a0
    4224:	81 34       	cpi	r24, 0x41	; 65
    4226:	24 f4       	brge	.+8      	;  0x4230
    4228:	80 53       	subi	r24, 0x30	; 48
    422a:	8a 30       	cpi	r24, 0x0A	; 10
    422c:	28 f3       	brcs	.-54     	;  0x41f8
    422e:	0b c1       	rjmp	.+534    	;  0x4446
    4230:	8b 35       	cpi	r24, 0x5B	; 91
    4232:	14 f3       	brlt	.-60     	;  0x41f8
    4234:	81 56       	subi	r24, 0x61	; 97
    4236:	8a 31       	cpi	r24, 0x1A	; 26
    4238:	f8 f2       	brcs	.-66     	;  0x41f8
    423a:	05 c1       	rjmp	.+522    	;  0x4446
    423c:	5e 01       	movw	r10, r28
    423e:	c7 01       	movw	r24, r14
    4240:	b5 01       	movw	r22, r10
    4242:	a8 01       	movw	r20, r16
    4244:	5d df       	rcall	.-326    	;  0x4100
    4246:	05 c0       	rjmp	.+10     	;  0x4252
    4248:	5e 01       	movw	r10, r28
    424a:	c7 01       	movw	r24, r14
    424c:	be 01       	movw	r22, r28
    424e:	a8 01       	movw	r20, r16
    4250:	f0 de       	rcall	.-544    	;  0x4032
    4252:	e8 01       	movw	r28, r16
    4254:	21 96       	adiw	r28, 0x01	; 1
    4256:	cc 15       	cp	r28, r12
    4258:	dd 05       	cpc	r29, r13
    425a:	09 f4       	brne	.+2      	;  0x425e
    425c:	f0 c0       	rjmp	.+480    	;  0x443e
    425e:	88 81       	ld	r24, Y
    4260:	8a 30       	cpi	r24, 0x0A	; 10
    4262:	c1 f3       	breq	.-16     	;  0x4254
    4264:	8b 30       	cpi	r24, 0x0B	; 11
    4266:	1c f4       	brge	.+6      	;  0x426e
    4268:	88 23       	and	r24, r24
    426a:	a1 f3       	breq	.-24     	;  0x4254
    426c:	ec c0       	rjmp	.+472    	;  0x4446
    426e:	8d 30       	cpi	r24, 0x0D	; 13
    4270:	89 f3       	breq	.-30     	;  0x4254
    4272:	8b 33       	cpi	r24, 0x3B	; 59
    4274:	09 f0       	breq	.+2      	;  0x4278
    4276:	e7 c0       	rjmp	.+462    	;  0x4446
    4278:	c7 01       	movw	r24, r14
    427a:	b5 01       	movw	r22, r10
    427c:	ae 01       	movw	r20, r28
    427e:	20 df       	rcall	.-448    	;  0x40c0
    4280:	21 96       	adiw	r28, 0x01	; 1
    4282:	cc 15       	cp	r28, r12
    4284:	dd 05       	cpc	r29, r13
    4286:	09 f4       	brne	.+2      	;  0x428a
    4288:	de c0       	rjmp	.+444    	;  0x4446
    428a:	88 81       	ld	r24, Y
    428c:	89 30       	cpi	r24, 0x09	; 9
    428e:	c1 f3       	breq	.-16     	;  0x4280
    4290:	80 32       	cpi	r24, 0x20	; 32
    4292:	b1 f3       	breq	.-20     	;  0x4280
    4294:	be 01       	movw	r22, r28
    4296:	8b 35       	cpi	r24, 0x5B	; 91
    4298:	24 f0       	brlt	.+8      	;  0x42a2
    429a:	81 56       	subi	r24, 0x61	; 97
    429c:	8a 31       	cpi	r24, 0x1A	; 26
    429e:	20 f0       	brcs	.+8      	;  0x42a8
    42a0:	d2 c0       	rjmp	.+420    	;  0x4446
    42a2:	81 34       	cpi	r24, 0x41	; 65
    42a4:	0c f4       	brge	.+2      	;  0x42a8
    42a6:	cf c0       	rjmp	.+414    	;  0x4446
    42a8:	8e 01       	movw	r16, r28
    42aa:	2c 2f       	mov	r18, r28
    42ac:	9d 2f       	mov	r25, r29
    42ae:	0f 5f       	subi	r16, 0xFF	; 255
    42b0:	1f 4f       	sbci	r17, 0xFF	; 255
    42b2:	0c 15       	cp	r16, r12
    42b4:	1d 05       	cpc	r17, r13
    42b6:	09 f4       	brne	.+2      	;  0x42ba
    42b8:	c6 c0       	rjmp	.+396    	;  0x4446
    42ba:	f8 01       	movw	r30, r16
    42bc:	80 81       	ld	r24, Z
    42be:	a2 2e       	mov	r10, r18
    42c0:	b9 2e       	mov	r11, r25
    42c2:	8a 30       	cpi	r24, 0x0A	; 10
    42c4:	09 f4       	brne	.+2      	;  0x42c8
    42c6:	bb cf       	rjmp	.-138    	;  0x423e
    42c8:	8b 30       	cpi	r24, 0x0B	; 11
    42ca:	34 f4       	brge	.+12     	;  0x42d8
    42cc:	88 23       	and	r24, r24
    42ce:	09 f4       	brne	.+2      	;  0x42d2
    42d0:	b6 cf       	rjmp	.-148    	;  0x423e
    42d2:	89 30       	cpi	r24, 0x09	; 9
    42d4:	31 f4       	brne	.+12     	;  0x42e2
    42d6:	11 c0       	rjmp	.+34     	;  0x42fa
    42d8:	8d 30       	cpi	r24, 0x0D	; 13
    42da:	09 f4       	brne	.+2      	;  0x42de
    42dc:	b0 cf       	rjmp	.-160    	;  0x423e
    42de:	80 32       	cpi	r24, 0x20	; 32
    42e0:	61 f0       	breq	.+24     	;  0x42fa
    42e2:	81 34       	cpi	r24, 0x41	; 65
    42e4:	24 f4       	brge	.+8      	;  0x42ee
    42e6:	80 53       	subi	r24, 0x30	; 48
    42e8:	8a 30       	cpi	r24, 0x0A	; 10
    42ea:	08 f3       	brcs	.-62     	;  0x42ae
    42ec:	ac c0       	rjmp	.+344    	;  0x4446
    42ee:	8b 35       	cpi	r24, 0x5B	; 91
    42f0:	f4 f2       	brlt	.-68     	;  0x42ae
    42f2:	81 56       	subi	r24, 0x61	; 97
    42f4:	8a 31       	cpi	r24, 0x1A	; 26
    42f6:	d8 f2       	brcs	.-74     	;  0x42ae
    42f8:	a6 c0       	rjmp	.+332    	;  0x4446
    42fa:	c7 01       	movw	r24, r14
    42fc:	a8 01       	movw	r20, r16
    42fe:	00 df       	rcall	.-512    	;  0x4100
    4300:	03 c0       	rjmp	.+6      	;  0x4308
    4302:	c7 01       	movw	r24, r14
    4304:	a8 01       	movw	r20, r16
    4306:	95 de       	rcall	.-726    	;  0x4032
    4308:	5e 01       	movw	r10, r28
    430a:	e8 01       	movw	r28, r16
    430c:	21 96       	adiw	r28, 0x01	; 1
    430e:	cc 15       	cp	r28, r12
    4310:	dd 05       	cpc	r29, r13
    4312:	09 f4       	brne	.+2      	;  0x4316
    4314:	98 c0       	rjmp	.+304    	;  0x4446
    4316:	88 81       	ld	r24, Y
    4318:	8d 30       	cpi	r24, 0x0D	; 13
    431a:	09 f4       	brne	.+2      	;  0x431e
    431c:	9b cf       	rjmp	.-202    	;  0x4254
    431e:	8e 30       	cpi	r24, 0x0E	; 14
    4320:	4c f4       	brge	.+18     	;  0x4334
    4322:	89 30       	cpi	r24, 0x09	; 9
    4324:	99 f3       	breq	.-26     	;  0x430c
    4326:	8a 30       	cpi	r24, 0x0A	; 10
    4328:	09 f4       	brne	.+2      	;  0x432c
    432a:	94 cf       	rjmp	.-216    	;  0x4254
    432c:	88 23       	and	r24, r24
    432e:	09 f4       	brne	.+2      	;  0x4332
    4330:	91 cf       	rjmp	.-222    	;  0x4254
    4332:	06 c0       	rjmp	.+12     	;  0x4340
    4334:	8b 32       	cpi	r24, 0x2B	; 43
    4336:	51 f0       	breq	.+20     	;  0x434c
    4338:	8d 32       	cpi	r24, 0x2D	; 45
    433a:	41 f0       	breq	.+16     	;  0x434c
    433c:	80 32       	cpi	r24, 0x20	; 32
    433e:	31 f3       	breq	.-52     	;  0x430c
    4340:	80 53       	subi	r24, 0x30	; 48
    4342:	8a 30       	cpi	r24, 0x0A	; 10
    4344:	08 f0       	brcs	.+2      	;  0x4348
    4346:	7f c0       	rjmp	.+254    	;  0x4446
    4348:	8e 01       	movw	r16, r28
    434a:	0c c0       	rjmp	.+24     	;  0x4364
    434c:	8e 01       	movw	r16, r28
    434e:	0f 5f       	subi	r16, 0xFF	; 255
    4350:	1f 4f       	sbci	r17, 0xFF	; 255
    4352:	0c 15       	cp	r16, r12
    4354:	1d 05       	cpc	r17, r13
    4356:	09 f4       	brne	.+2      	;  0x435a
    4358:	76 c0       	rjmp	.+236    	;  0x4446
    435a:	89 81       	ldd	r24, Y+1	; 0x01
    435c:	80 53       	subi	r24, 0x30	; 48
    435e:	8a 30       	cpi	r24, 0x0A	; 10
    4360:	08 f0       	brcs	.+2      	;  0x4364
    4362:	71 c0       	rjmp	.+226    	;  0x4446
    4364:	be 01       	movw	r22, r28
    4366:	0f 5f       	subi	r16, 0xFF	; 255
    4368:	1f 4f       	sbci	r17, 0xFF	; 255
    436a:	0c 15       	cp	r16, r12
    436c:	1d 05       	cpc	r17, r13
    436e:	09 f4       	brne	.+2      	;  0x4372
    4370:	6a c0       	rjmp	.+212    	;  0x4446
    4372:	f8 01       	movw	r30, r16
    4374:	80 81       	ld	r24, Z
    4376:	8a 30       	cpi	r24, 0x0A	; 10
    4378:	09 f4       	brne	.+2      	;  0x437c
    437a:	66 cf       	rjmp	.-308    	;  0x4248
    437c:	8b 30       	cpi	r24, 0x0B	; 11
    437e:	34 f4       	brge	.+12     	;  0x438c
    4380:	88 23       	and	r24, r24
    4382:	09 f4       	brne	.+2      	;  0x4386
    4384:	61 cf       	rjmp	.-318    	;  0x4248
    4386:	89 30       	cpi	r24, 0x09	; 9
    4388:	39 f4       	brne	.+14     	;  0x4398
    438a:	bb cf       	rjmp	.-138    	;  0x4302
    438c:	8d 30       	cpi	r24, 0x0D	; 13
    438e:	09 f4       	brne	.+2      	;  0x4392
    4390:	5b cf       	rjmp	.-330    	;  0x4248
    4392:	80 32       	cpi	r24, 0x20	; 32
    4394:	09 f4       	brne	.+2      	;  0x4398
    4396:	b5 cf       	rjmp	.-150    	;  0x4302
    4398:	80 53       	subi	r24, 0x30	; 48
    439a:	8a 30       	cpi	r24, 0x0A	; 10
    439c:	20 f3       	brcs	.-56     	;  0x4366
    439e:	53 c0       	rjmp	.+166    	;  0x4446
    43a0:	c7 01       	movw	r24, r14
    43a2:	a8 01       	movw	r20, r16
    43a4:	ad de       	rcall	.-678    	;  0x4100
    43a6:	03 c0       	rjmp	.+6      	;  0x43ae
    43a8:	c7 01       	movw	r24, r14
    43aa:	a8 01       	movw	r20, r16
    43ac:	42 de       	rcall	.-892    	;  0x4032
    43ae:	5e 01       	movw	r10, r28
    43b0:	e8 01       	movw	r28, r16
    43b2:	21 96       	adiw	r28, 0x01	; 1
    43b4:	cc 15       	cp	r28, r12
    43b6:	dd 05       	cpc	r29, r13
    43b8:	09 f4       	brne	.+2      	;  0x43bc
    43ba:	45 c0       	rjmp	.+138    	;  0x4446
    43bc:	88 81       	ld	r24, Y
    43be:	8d 30       	cpi	r24, 0x0D	; 13
    43c0:	81 f0       	breq	.+32     	;  0x43e2
    43c2:	8e 30       	cpi	r24, 0x0E	; 14
    43c4:	3c f4       	brge	.+14     	;  0x43d4
    43c6:	89 30       	cpi	r24, 0x09	; 9
    43c8:	a1 f3       	breq	.-24     	;  0x43b2
    43ca:	8a 30       	cpi	r24, 0x0A	; 10
    43cc:	51 f0       	breq	.+20     	;  0x43e2
    43ce:	88 23       	and	r24, r24
    43d0:	41 f0       	breq	.+16     	;  0x43e2
    43d2:	09 c0       	rjmp	.+18     	;  0x43e6
    43d4:	8b 32       	cpi	r24, 0x2B	; 43
    43d6:	61 f0       	breq	.+24     	;  0x43f0
    43d8:	8d 32       	cpi	r24, 0x2D	; 45
    43da:	51 f0       	breq	.+20     	;  0x43f0
    43dc:	80 32       	cpi	r24, 0x20	; 32
    43de:	19 f4       	brne	.+6      	;  0x43e6
    43e0:	e8 cf       	rjmp	.-48     	;  0x43b2
    43e2:	8e 01       	movw	r16, r28
    43e4:	36 cf       	rjmp	.-404    	;  0x4252
    43e6:	80 53       	subi	r24, 0x30	; 48
    43e8:	8a 30       	cpi	r24, 0x0A	; 10
    43ea:	68 f5       	brcc	.+90     	;  0x4446
    43ec:	8e 01       	movw	r16, r28
    43ee:	0a c0       	rjmp	.+20     	;  0x4404
    43f0:	8e 01       	movw	r16, r28
    43f2:	0f 5f       	subi	r16, 0xFF	; 255
    43f4:	1f 4f       	sbci	r17, 0xFF	; 255
    43f6:	0c 15       	cp	r16, r12
    43f8:	1d 05       	cpc	r17, r13
    43fa:	29 f1       	breq	.+74     	;  0x4446
    43fc:	89 81       	ldd	r24, Y+1	; 0x01
    43fe:	80 53       	subi	r24, 0x30	; 48
    4400:	8a 30       	cpi	r24, 0x0A	; 10
    4402:	08 f5       	brcc	.+66     	;  0x4446
    4404:	be 01       	movw	r22, r28
    4406:	0f 5f       	subi	r16, 0xFF	; 255
    4408:	1f 4f       	sbci	r17, 0xFF	; 255
    440a:	0c 15       	cp	r16, r12
    440c:	1d 05       	cpc	r17, r13
    440e:	d9 f0       	breq	.+54     	;  0x4446
    4410:	f8 01       	movw	r30, r16
    4412:	80 81       	ld	r24, Z
    4414:	8a 30       	cpi	r24, 0x0A	; 10
    4416:	09 f4       	brne	.+2      	;  0x441a
    4418:	17 cf       	rjmp	.-466    	;  0x4248
    441a:	8b 30       	cpi	r24, 0x0B	; 11
    441c:	34 f4       	brge	.+12     	;  0x442a
    441e:	88 23       	and	r24, r24
    4420:	09 f4       	brne	.+2      	;  0x4424
    4422:	12 cf       	rjmp	.-476    	;  0x4248
    4424:	89 30       	cpi	r24, 0x09	; 9
    4426:	39 f4       	brne	.+14     	;  0x4436
    4428:	bf cf       	rjmp	.-130    	;  0x43a8
    442a:	8d 30       	cpi	r24, 0x0D	; 13
    442c:	09 f4       	brne	.+2      	;  0x4430
    442e:	0c cf       	rjmp	.-488    	;  0x4248
    4430:	80 32       	cpi	r24, 0x20	; 32
    4432:	09 f4       	brne	.+2      	;  0x4436
    4434:	b9 cf       	rjmp	.-142    	;  0x43a8
    4436:	80 53       	subi	r24, 0x30	; 48
    4438:	8a 30       	cpi	r24, 0x0A	; 10
    443a:	28 f3       	brcs	.-54     	;  0x4406
    443c:	04 c0       	rjmp	.+8      	;  0x4446
    443e:	c7 01       	movw	r24, r14
    4440:	b5 01       	movw	r22, r10
    4442:	ae 01       	movw	r20, r28
    4444:	3d de       	rcall	.-902    	;  0x40c0
    4446:	df 91       	pop	r29
    4448:	cf 91       	pop	r28
    444a:	1f 91       	pop	r17
    444c:	0f 91       	pop	r16
    444e:	ff 90       	pop	r15
    4450:	ef 90       	pop	r14
    4452:	df 90       	pop	r13
    4454:	cf 90       	pop	r12
    4456:	bf 90       	pop	r11
    4458:	af 90       	pop	r10
    445a:	08 95       	ret
    445c:	1f 93       	push	r17
    445e:	cf 93       	push	r28
    4460:	df 93       	push	r29
    4462:	ec 01       	movw	r28, r24
    4464:	16 2f       	mov	r17, r22
    4466:	6d 30       	cpi	r22, 0x0D	; 13
    4468:	11 f0       	breq	.+4      	;  0x446e
    446a:	6a 30       	cpi	r22, 0x0A	; 10
    446c:	39 f4       	brne	.+14     	;  0x447c
    446e:	ce 01       	movw	r24, r28
    4470:	7c de       	rcall	.-776    	;  0x416a
    4472:	18 86       	std	Y+8, r1	; 0x08
    4474:	c7 5b       	subi	r28, 0xB7	; 183
    4476:	df 4f       	sbci	r29, 0xFF	; 255
    4478:	18 82       	st	Y, r1
    447a:	22 c0       	rjmp	.+68     	;  0x44c0
    447c:	86 2f       	mov	r24, r22
    447e:	99 27       	eor	r25, r25
    4480:	87 fd       	sbrc	r24, 7
    4482:	90 95       	com	r25
    4484:	0e 94 e1 2d 	call	0x5bc2	;  0x5bc2
    4488:	89 2b       	or	r24, r25
    448a:	69 f0       	breq	.+26     	;  0x44a6
    448c:	de 01       	movw	r26, r28
    448e:	a7 5b       	subi	r26, 0xB7	; 183
    4490:	bf 4f       	sbci	r27, 0xFF	; 255
    4492:	8c 91       	ld	r24, X
    4494:	80 34       	cpi	r24, 0x40	; 64
    4496:	a0 f4       	brcc	.+40     	;  0x44c0
    4498:	fe 01       	movw	r30, r28
    449a:	e8 0f       	add	r30, r24
    449c:	f1 1d       	adc	r31, r1
    449e:	10 87       	std	Z+8, r17	; 0x08
    44a0:	8f 5f       	subi	r24, 0xFF	; 255
    44a2:	8c 93       	st	X, r24
    44a4:	0a c0       	rjmp	.+20     	;  0x44ba
    44a6:	18 30       	cpi	r17, 0x08	; 8
    44a8:	59 f4       	brne	.+22     	;  0x44c0
    44aa:	fe 01       	movw	r30, r28
    44ac:	e7 5b       	subi	r30, 0xB7	; 183
    44ae:	ff 4f       	sbci	r31, 0xFF	; 255
    44b0:	80 81       	ld	r24, Z
    44b2:	88 23       	and	r24, r24
    44b4:	29 f0       	breq	.+10     	;  0x44c0
    44b6:	81 50       	subi	r24, 0x01	; 1
    44b8:	80 83       	st	Z, r24
    44ba:	c8 0f       	add	r28, r24
    44bc:	d1 1d       	adc	r29, r1
    44be:	18 86       	std	Y+8, r1	; 0x08
    44c0:	df 91       	pop	r29
    44c2:	cf 91       	pop	r28
    44c4:	1f 91       	pop	r17
    44c6:	08 95       	ret
    44c8:	0f 93       	push	r16
    44ca:	1f 93       	push	r17
    44cc:	8c 01       	movw	r16, r24
    44ce:	fc 01       	movw	r30, r24
    44d0:	71 83       	std	Z+1, r23	; 0x01
    44d2:	60 83       	st	Z, r22
    44d4:	12 82       	std	Z+2, r1	; 0x02
    44d6:	14 82       	std	Z+4, r1	; 0x04
    44d8:	13 82       	std	Z+3, r1	; 0x03
    44da:	47 83       	std	Z+7, r20	; 0x07
    44dc:	06 5b       	subi	r16, 0xB6	; 182
    44de:	1f 4f       	sbci	r17, 0xFF	; 255
    44e0:	f8 01       	movw	r30, r16
    44e2:	11 82       	std	Z+1, r1	; 0x01
    44e4:	10 82       	st	Z, r1
    44e6:	0a 54       	subi	r16, 0x4A	; 74
    44e8:	10 40       	sbci	r17, 0x00	; 0
    44ea:	c8 01       	movw	r24, r16
    44ec:	05 96       	adiw	r24, 0x05	; 5
    44ee:	60 ea       	ldi	r22, 0xA0	; 160
    44f0:	72 e0       	ldi	r23, 0x02	; 2
    44f2:	0e 94 1a 01 	call	0x234	;  0x234
    44f6:	f8 01       	movw	r30, r16
    44f8:	10 86       	std	Z+8, r1	; 0x08
    44fa:	07 5b       	subi	r16, 0xB7	; 183
    44fc:	1f 4f       	sbci	r17, 0xFF	; 255
    44fe:	f8 01       	movw	r30, r16
    4500:	10 82       	st	Z, r1
    4502:	0d 5f       	subi	r16, 0xFD	; 253
    4504:	1f 4f       	sbci	r17, 0xFF	; 255
    4506:	f8 01       	movw	r30, r16
    4508:	11 82       	std	Z+1, r1	; 0x01
    450a:	10 82       	st	Z, r1
    450c:	0a 5e       	subi	r16, 0xEA	; 234
    450e:	1f 4f       	sbci	r17, 0xFF	; 255
    4510:	f8 01       	movw	r30, r16
    4512:	11 82       	std	Z+1, r1	; 0x01
    4514:	10 82       	st	Z, r1
    4516:	1f 91       	pop	r17
    4518:	0f 91       	pop	r16
    451a:	08 95       	ret
    451c:	08 95       	ret
    451e:	1f 92       	push	r1
    4520:	0f 92       	push	r0
    4522:	0f b6       	in	r0, 0x3f	; 63
    4524:	0f 92       	push	r0
    4526:	11 24       	eor	r1, r1
    4528:	2f 93       	push	r18
    452a:	3f 93       	push	r19
    452c:	4f 93       	push	r20
    452e:	8f 93       	push	r24
    4530:	9f 93       	push	r25
    4532:	ef 93       	push	r30
    4534:	ff 93       	push	r31
    4536:	80 91 c0 00 	lds	r24, 0x00C0
    453a:	82 fd       	sbrc	r24, 2
    453c:	1d c0       	rjmp	.+58     	;  0x4578
    453e:	40 91 c6 00 	lds	r20, 0x00C6
    4542:	20 91 f5 06 	lds	r18, 0x06F5
    4546:	30 91 f6 06 	lds	r19, 0x06F6
    454a:	2f 5f       	subi	r18, 0xFF	; 255
    454c:	3f 4f       	sbci	r19, 0xFF	; 255
    454e:	2f 73       	andi	r18, 0x3F	; 63
    4550:	30 70       	andi	r19, 0x00	; 0
    4552:	80 91 f7 06 	lds	r24, 0x06F7
    4556:	90 91 f8 06 	lds	r25, 0x06F8
    455a:	28 17       	cp	r18, r24
    455c:	39 07       	cpc	r19, r25
    455e:	71 f0       	breq	.+28     	;  0x457c
    4560:	e0 91 f5 06 	lds	r30, 0x06F5
    4564:	f0 91 f6 06 	lds	r31, 0x06F6
    4568:	eb 54       	subi	r30, 0x4B	; 75
    456a:	f9 4f       	sbci	r31, 0xF9	; 249
    456c:	40 83       	st	Z, r20
    456e:	30 93 f6 06 	sts	0x06F6, r19
    4572:	20 93 f5 06 	sts	0x06F5, r18
    4576:	02 c0       	rjmp	.+4      	;  0x457c
    4578:	80 91 c6 00 	lds	r24, 0x00C6
    457c:	ff 91       	pop	r31
    457e:	ef 91       	pop	r30
    4580:	9f 91       	pop	r25
    4582:	8f 91       	pop	r24
    4584:	4f 91       	pop	r20
    4586:	3f 91       	pop	r19
    4588:	2f 91       	pop	r18
    458a:	0f 90       	pop	r0
    458c:	0f be       	out	0x3f, r0	; 63
    458e:	0f 90       	pop	r0
    4590:	1f 90       	pop	r1
    4592:	18 95       	reti
    4594:	e0 91 49 07 	lds	r30, 0x0749
    4598:	f0 91 4a 07 	lds	r31, 0x074A
    459c:	e0 5c       	subi	r30, 0xC0	; 192
    459e:	ff 4f       	sbci	r31, 0xFF	; 255
    45a0:	81 91       	ld	r24, Z+
    45a2:	91 91       	ld	r25, Z+
    45a4:	20 81       	ld	r18, Z
    45a6:	31 81       	ldd	r19, Z+1	; 0x01
    45a8:	82 1b       	sub	r24, r18
    45aa:	93 0b       	sbc	r25, r19
    45ac:	8f 73       	andi	r24, 0x3F	; 63
    45ae:	90 70       	andi	r25, 0x00	; 0
    45b0:	89 2b       	or	r24, r25
    45b2:	09 f0       	breq	.+2      	;  0x45b6
    45b4:	b3 cf       	rjmp	.-154    	;  0x451c
    45b6:	08 95       	ret
    45b8:	1f 92       	push	r1
    45ba:	0f 92       	push	r0
    45bc:	0f b6       	in	r0, 0x3f	; 63
    45be:	0f 92       	push	r0
    45c0:	11 24       	eor	r1, r1
    45c2:	2f 93       	push	r18
    45c4:	3f 93       	push	r19
    45c6:	8f 93       	push	r24
    45c8:	9f 93       	push	r25
    45ca:	ef 93       	push	r30
    45cc:	ff 93       	push	r31
    45ce:	20 91 39 07 	lds	r18, 0x0739
    45d2:	30 91 3a 07 	lds	r19, 0x073A
    45d6:	80 91 3b 07 	lds	r24, 0x073B
    45da:	90 91 3c 07 	lds	r25, 0x073C
    45de:	28 17       	cp	r18, r24
    45e0:	39 07       	cpc	r19, r25
    45e2:	31 f4       	brne	.+12     	;  0x45f0
    45e4:	80 91 c1 00 	lds	r24, 0x00C1
    45e8:	8f 7d       	andi	r24, 0xDF	; 223
    45ea:	80 93 c1 00 	sts	0x00C1, r24
    45ee:	14 c0       	rjmp	.+40     	;  0x4618
    45f0:	e0 91 3b 07 	lds	r30, 0x073B
    45f4:	f0 91 3c 07 	lds	r31, 0x073C
    45f8:	e7 50       	subi	r30, 0x07	; 7
    45fa:	f9 4f       	sbci	r31, 0xF9	; 249
    45fc:	20 81       	ld	r18, Z
    45fe:	80 91 3b 07 	lds	r24, 0x073B
    4602:	90 91 3c 07 	lds	r25, 0x073C
    4606:	01 96       	adiw	r24, 0x01	; 1
    4608:	8f 73       	andi	r24, 0x3F	; 63
    460a:	90 70       	andi	r25, 0x00	; 0
    460c:	90 93 3c 07 	sts	0x073C, r25
    4610:	80 93 3b 07 	sts	0x073B, r24
    4614:	20 93 c6 00 	sts	0x00C6, r18
    4618:	ff 91       	pop	r31
    461a:	ef 91       	pop	r30
    461c:	9f 91       	pop	r25
    461e:	8f 91       	pop	r24
    4620:	3f 91       	pop	r19
    4622:	2f 91       	pop	r18
    4624:	0f 90       	pop	r0
    4626:	0f be       	out	0x3f, r0	; 63
    4628:	0f 90       	pop	r0
    462a:	1f 90       	pop	r1
    462c:	18 95       	reti
    462e:	af 92       	push	r10
    4630:	bf 92       	push	r11
    4632:	df 92       	push	r13
    4634:	ef 92       	push	r14
    4636:	ff 92       	push	r15
    4638:	0f 93       	push	r16
    463a:	1f 93       	push	r17
    463c:	cf 93       	push	r28
    463e:	df 93       	push	r29
    4640:	ec 01       	movw	r28, r24
    4642:	7a 01       	movw	r14, r20
    4644:	8b 01       	movw	r16, r22
    4646:	dd 24       	eor	r13, r13
    4648:	40 30       	cpi	r20, 0x00	; 0
    464a:	81 ee       	ldi	r24, 0xE1	; 225
    464c:	58 07       	cpc	r21, r24
    464e:	80 e0       	ldi	r24, 0x00	; 0
    4650:	68 07       	cpc	r22, r24
    4652:	80 e0       	ldi	r24, 0x00	; 0
    4654:	78 07       	cpc	r23, r24
    4656:	11 f0       	breq	.+4      	;  0x465c
    4658:	dd 24       	eor	r13, r13
    465a:	d3 94       	inc	r13
    465c:	91 e0       	ldi	r25, 0x01	; 1
    465e:	a9 2e       	mov	r10, r25
    4660:	b1 2c       	mov	r11, r1
    4662:	ec 89       	ldd	r30, Y+20	; 0x14
    4664:	fd 89       	ldd	r31, Y+21	; 0x15
    4666:	dd 20       	and	r13, r13
    4668:	69 f0       	breq	.+26     	;  0x4684
    466a:	c5 01       	movw	r24, r10
    466c:	08 a0       	ldd	r0, Y+32	; 0x20
    466e:	02 c0       	rjmp	.+4      	;  0x4674
    4670:	88 0f       	add	r24, r24
    4672:	99 1f       	adc	r25, r25
    4674:	0a 94       	dec	r0
    4676:	e2 f7       	brpl	.-8      	;  0x4670
    4678:	80 83       	st	Z, r24
    467a:	60 e0       	ldi	r22, 0x00	; 0
    467c:	79 e0       	ldi	r23, 0x09	; 9
    467e:	8d e3       	ldi	r24, 0x3D	; 61
    4680:	90 e0       	ldi	r25, 0x00	; 0
    4682:	05 c0       	rjmp	.+10     	;  0x468e
    4684:	10 82       	st	Z, r1
    4686:	60 e8       	ldi	r22, 0x80	; 128
    4688:	74 e8       	ldi	r23, 0x84	; 132
    468a:	8e e1       	ldi	r24, 0x1E	; 30
    468c:	90 e0       	ldi	r25, 0x00	; 0
    468e:	a8 01       	movw	r20, r16
    4690:	97 01       	movw	r18, r14
    4692:	0e 94 30 2e 	call	0x5c60	;  0x5c60
    4696:	21 50       	subi	r18, 0x01	; 1
    4698:	30 40       	sbci	r19, 0x00	; 0
    469a:	40 40       	sbci	r20, 0x00	; 0
    469c:	50 40       	sbci	r21, 0x00	; 0
    469e:	56 95       	lsr	r21
    46a0:	47 95       	ror	r20
    46a2:	37 95       	ror	r19
    46a4:	27 95       	ror	r18
    46a6:	80 e1       	ldi	r24, 0x10	; 16
    46a8:	20 30       	cpi	r18, 0x00	; 0
    46aa:	38 07       	cpc	r19, r24
    46ac:	20 f0       	brcs	.+8      	;  0x46b6
    46ae:	dd 20       	and	r13, r13
    46b0:	11 f0       	breq	.+4      	;  0x46b6
    46b2:	dd 24       	eor	r13, r13
    46b4:	d6 cf       	rjmp	.-84     	;  0x4662
    46b6:	e8 89       	ldd	r30, Y+16	; 0x10
    46b8:	f9 89       	ldd	r31, Y+17	; 0x11
    46ba:	30 83       	st	Z, r19
    46bc:	ea 89       	ldd	r30, Y+18	; 0x12
    46be:	fb 89       	ldd	r31, Y+19	; 0x13
    46c0:	20 83       	st	Z, r18
    46c2:	19 a2       	std	Y+33, r1	; 0x21
    46c4:	ee 89       	ldd	r30, Y+22	; 0x16
    46c6:	ff 89       	ldd	r31, Y+23	; 0x17
    46c8:	40 81       	ld	r20, Z
    46ca:	21 e0       	ldi	r18, 0x01	; 1
    46cc:	30 e0       	ldi	r19, 0x00	; 0
    46ce:	c9 01       	movw	r24, r18
    46d0:	0c 8c       	ldd	r0, Y+28	; 0x1c
    46d2:	02 c0       	rjmp	.+4      	;  0x46d8
    46d4:	88 0f       	add	r24, r24
    46d6:	99 1f       	adc	r25, r25
    46d8:	0a 94       	dec	r0
    46da:	e2 f7       	brpl	.-8      	;  0x46d4
    46dc:	48 2b       	or	r20, r24
    46de:	40 83       	st	Z, r20
    46e0:	ee 89       	ldd	r30, Y+22	; 0x16
    46e2:	ff 89       	ldd	r31, Y+23	; 0x17
    46e4:	40 81       	ld	r20, Z
    46e6:	c9 01       	movw	r24, r18
    46e8:	0d 8c       	ldd	r0, Y+29	; 0x1d
    46ea:	02 c0       	rjmp	.+4      	;  0x46f0
    46ec:	88 0f       	add	r24, r24
    46ee:	99 1f       	adc	r25, r25
    46f0:	0a 94       	dec	r0
    46f2:	e2 f7       	brpl	.-8      	;  0x46ec
    46f4:	48 2b       	or	r20, r24
    46f6:	40 83       	st	Z, r20
    46f8:	ee 89       	ldd	r30, Y+22	; 0x16
    46fa:	ff 89       	ldd	r31, Y+23	; 0x17
    46fc:	40 81       	ld	r20, Z
    46fe:	c9 01       	movw	r24, r18
    4700:	0e 8c       	ldd	r0, Y+30	; 0x1e
    4702:	02 c0       	rjmp	.+4      	;  0x4708
    4704:	88 0f       	add	r24, r24
    4706:	99 1f       	adc	r25, r25
    4708:	0a 94       	dec	r0
    470a:	e2 f7       	brpl	.-8      	;  0x4704
    470c:	48 2b       	or	r20, r24
    470e:	40 83       	st	Z, r20
    4710:	ee 89       	ldd	r30, Y+22	; 0x16
    4712:	ff 89       	ldd	r31, Y+23	; 0x17
    4714:	80 81       	ld	r24, Z
    4716:	0f 8c       	ldd	r0, Y+31	; 0x1f
    4718:	02 c0       	rjmp	.+4      	;  0x471e
    471a:	22 0f       	add	r18, r18
    471c:	33 1f       	adc	r19, r19
    471e:	0a 94       	dec	r0
    4720:	e2 f7       	brpl	.-8      	;  0x471a
    4722:	20 95       	com	r18
    4724:	28 23       	and	r18, r24
    4726:	20 83       	st	Z, r18
    4728:	df 91       	pop	r29
    472a:	cf 91       	pop	r28
    472c:	1f 91       	pop	r17
    472e:	0f 91       	pop	r16
    4730:	ff 90       	pop	r15
    4732:	ef 90       	pop	r14
    4734:	df 90       	pop	r13
    4736:	bf 90       	pop	r11
    4738:	af 90       	pop	r10
    473a:	08 95       	ret
    473c:	dc 01       	movw	r26, r24
    473e:	1c 96       	adiw	r26, 0x0c	; 12
    4740:	ed 91       	ld	r30, X+
    4742:	fc 91       	ld	r31, X
    4744:	1d 97       	sbiw	r26, 0x0d	; 13
    4746:	e0 5c       	subi	r30, 0xC0	; 192
    4748:	ff 4f       	sbci	r31, 0xFF	; 255
    474a:	21 91       	ld	r18, Z+
    474c:	31 91       	ld	r19, Z+
    474e:	80 81       	ld	r24, Z
    4750:	91 81       	ldd	r25, Z+1	; 0x01
    4752:	28 1b       	sub	r18, r24
    4754:	39 0b       	sbc	r19, r25
    4756:	2f 73       	andi	r18, 0x3F	; 63
    4758:	30 70       	andi	r19, 0x00	; 0
    475a:	c9 01       	movw	r24, r18
    475c:	08 95       	ret
    475e:	dc 01       	movw	r26, r24
    4760:	1c 96       	adiw	r26, 0x0c	; 12
    4762:	ed 91       	ld	r30, X+
    4764:	fc 91       	ld	r31, X
    4766:	1d 97       	sbiw	r26, 0x0d	; 13
    4768:	e0 5c       	subi	r30, 0xC0	; 192
    476a:	ff 4f       	sbci	r31, 0xFF	; 255
    476c:	20 81       	ld	r18, Z
    476e:	31 81       	ldd	r19, Z+1	; 0x01
    4770:	e0 54       	subi	r30, 0x40	; 64
    4772:	f0 40       	sbci	r31, 0x00	; 0
    4774:	df 01       	movw	r26, r30
    4776:	ae 5b       	subi	r26, 0xBE	; 190
    4778:	bf 4f       	sbci	r27, 0xFF	; 255
    477a:	8d 91       	ld	r24, X+
    477c:	9c 91       	ld	r25, X
    477e:	11 97       	sbiw	r26, 0x01	; 1
    4780:	28 17       	cp	r18, r24
    4782:	39 07       	cpc	r19, r25
    4784:	19 f4       	brne	.+6      	;  0x478c
    4786:	2f ef       	ldi	r18, 0xFF	; 255
    4788:	3f ef       	ldi	r19, 0xFF	; 255
    478a:	07 c0       	rjmp	.+14     	;  0x479a
    478c:	8d 91       	ld	r24, X+
    478e:	9c 91       	ld	r25, X
    4790:	e8 0f       	add	r30, r24
    4792:	f9 1f       	adc	r31, r25
    4794:	80 81       	ld	r24, Z
    4796:	28 2f       	mov	r18, r24
    4798:	30 e0       	ldi	r19, 0x00	; 0
    479a:	c9 01       	movw	r24, r18
    479c:	08 95       	ret
    479e:	dc 01       	movw	r26, r24
    47a0:	1c 96       	adiw	r26, 0x0c	; 12
    47a2:	ed 91       	ld	r30, X+
    47a4:	fc 91       	ld	r31, X
    47a6:	1d 97       	sbiw	r26, 0x0d	; 13
    47a8:	e0 5c       	subi	r30, 0xC0	; 192
    47aa:	ff 4f       	sbci	r31, 0xFF	; 255
    47ac:	20 81       	ld	r18, Z
    47ae:	31 81       	ldd	r19, Z+1	; 0x01
    47b0:	e0 54       	subi	r30, 0x40	; 64
    47b2:	f0 40       	sbci	r31, 0x00	; 0
    47b4:	df 01       	movw	r26, r30
    47b6:	ae 5b       	subi	r26, 0xBE	; 190
    47b8:	bf 4f       	sbci	r27, 0xFF	; 255
    47ba:	8d 91       	ld	r24, X+
    47bc:	9c 91       	ld	r25, X
    47be:	11 97       	sbiw	r26, 0x01	; 1
    47c0:	28 17       	cp	r18, r24
    47c2:	39 07       	cpc	r19, r25
    47c4:	19 f4       	brne	.+6      	;  0x47cc
    47c6:	2f ef       	ldi	r18, 0xFF	; 255
    47c8:	3f ef       	ldi	r19, 0xFF	; 255
    47ca:	10 c0       	rjmp	.+32     	;  0x47ec
    47cc:	8d 91       	ld	r24, X+
    47ce:	9c 91       	ld	r25, X
    47d0:	11 97       	sbiw	r26, 0x01	; 1
    47d2:	e8 0f       	add	r30, r24
    47d4:	f9 1f       	adc	r31, r25
    47d6:	20 81       	ld	r18, Z
    47d8:	8d 91       	ld	r24, X+
    47da:	9c 91       	ld	r25, X
    47dc:	11 97       	sbiw	r26, 0x01	; 1
    47de:	01 96       	adiw	r24, 0x01	; 1
    47e0:	8f 73       	andi	r24, 0x3F	; 63
    47e2:	90 70       	andi	r25, 0x00	; 0
    47e4:	11 96       	adiw	r26, 0x01	; 1
    47e6:	9c 93       	st	X, r25
    47e8:	8e 93       	st	-X, r24
    47ea:	30 e0       	ldi	r19, 0x00	; 0
    47ec:	c9 01       	movw	r24, r18
    47ee:	08 95       	ret
    47f0:	dc 01       	movw	r26, r24
    47f2:	91 96       	adiw	r26, 0x21	; 33
    47f4:	8c 91       	ld	r24, X
    47f6:	91 97       	sbiw	r26, 0x21	; 33
    47f8:	88 23       	and	r24, r24
    47fa:	39 f0       	breq	.+14     	;  0x480a
    47fc:	54 96       	adiw	r26, 0x14	; 20
    47fe:	ed 91       	ld	r30, X+
    4800:	fc 91       	ld	r31, X
    4802:	55 97       	sbiw	r26, 0x15	; 21
    4804:	80 81       	ld	r24, Z
    4806:	86 ff       	sbrs	r24, 6
    4808:	f9 cf       	rjmp	.-14     	;  0x47fc
    480a:	91 96       	adiw	r26, 0x21	; 33
    480c:	1c 92       	st	X, r1
    480e:	08 95       	ret
    4810:	cf 93       	push	r28
    4812:	df 93       	push	r29
    4814:	ec 01       	movw	r28, r24
    4816:	ee 85       	ldd	r30, Y+14	; 0x0e
    4818:	ff 85       	ldd	r31, Y+15	; 0x0f
    481a:	e0 5c       	subi	r30, 0xC0	; 192
    481c:	ff 4f       	sbci	r31, 0xFF	; 255
    481e:	20 81       	ld	r18, Z
    4820:	31 81       	ldd	r19, Z+1	; 0x01
    4822:	e0 54       	subi	r30, 0x40	; 64
    4824:	f0 40       	sbci	r31, 0x00	; 0
    4826:	2f 5f       	subi	r18, 0xFF	; 255
    4828:	3f 4f       	sbci	r19, 0xFF	; 255
    482a:	2f 73       	andi	r18, 0x3F	; 63
    482c:	30 70       	andi	r19, 0x00	; 0
    482e:	df 01       	movw	r26, r30
    4830:	ae 5b       	subi	r26, 0xBE	; 190
    4832:	bf 4f       	sbci	r27, 0xFF	; 255
    4834:	8d 91       	ld	r24, X+
    4836:	9c 91       	ld	r25, X
    4838:	11 97       	sbiw	r26, 0x01	; 1
    483a:	28 17       	cp	r18, r24
    483c:	39 07       	cpc	r19, r25
    483e:	d1 f3       	breq	.-12     	;  0x4834
    4840:	e0 5c       	subi	r30, 0xC0	; 192
    4842:	ff 4f       	sbci	r31, 0xFF	; 255
    4844:	80 81       	ld	r24, Z
    4846:	91 81       	ldd	r25, Z+1	; 0x01
    4848:	e0 54       	subi	r30, 0x40	; 64
    484a:	f0 40       	sbci	r31, 0x00	; 0
    484c:	e8 0f       	add	r30, r24
    484e:	f9 1f       	adc	r31, r25
    4850:	60 83       	st	Z, r22
    4852:	ee 85       	ldd	r30, Y+14	; 0x0e
    4854:	ff 85       	ldd	r31, Y+15	; 0x0f
    4856:	e0 5c       	subi	r30, 0xC0	; 192
    4858:	ff 4f       	sbci	r31, 0xFF	; 255
    485a:	31 83       	std	Z+1, r19	; 0x01
    485c:	20 83       	st	Z, r18
    485e:	ee 89       	ldd	r30, Y+22	; 0x16
    4860:	ff 89       	ldd	r31, Y+23	; 0x17
    4862:	20 81       	ld	r18, Z
    4864:	81 e0       	ldi	r24, 0x01	; 1
    4866:	90 e0       	ldi	r25, 0x00	; 0
    4868:	0f 8c       	ldd	r0, Y+31	; 0x1f
    486a:	02 c0       	rjmp	.+4      	;  0x4870
    486c:	88 0f       	add	r24, r24
    486e:	99 1f       	adc	r25, r25
    4870:	0a 94       	dec	r0
    4872:	e2 f7       	brpl	.-8      	;  0x486c
    4874:	28 2b       	or	r18, r24
    4876:	20 83       	st	Z, r18
    4878:	81 e0       	ldi	r24, 0x01	; 1
    487a:	89 a3       	std	Y+33, r24	; 0x21
    487c:	ec 89       	ldd	r30, Y+20	; 0x14
    487e:	fd 89       	ldd	r31, Y+21	; 0x15
    4880:	80 81       	ld	r24, Z
    4882:	80 64       	ori	r24, 0x40	; 64
    4884:	80 83       	st	Z, r24
    4886:	81 e0       	ldi	r24, 0x01	; 1
    4888:	90 e0       	ldi	r25, 0x00	; 0
    488a:	df 91       	pop	r29
    488c:	cf 91       	pop	r28
    488e:	08 95       	ret
    4890:	10 92 40 07 	sts	0x0740, r1
    4894:	10 92 3f 07 	sts	0x073F, r1
    4898:	88 ee       	ldi	r24, 0xE8	; 232
    489a:	93 e0       	ldi	r25, 0x03	; 3
    489c:	a0 e0       	ldi	r26, 0x00	; 0
    489e:	b0 e0       	ldi	r27, 0x00	; 0
    48a0:	80 93 41 07 	sts	0x0741, r24
    48a4:	90 93 42 07 	sts	0x0742, r25
    48a8:	a0 93 43 07 	sts	0x0743, r26
    48ac:	b0 93 44 07 	sts	0x0744, r27
    48b0:	84 e1       	ldi	r24, 0x14	; 20
    48b2:	93 e0       	ldi	r25, 0x03	; 3
    48b4:	90 93 3e 07 	sts	0x073E, r25
    48b8:	80 93 3d 07 	sts	0x073D, r24
    48bc:	85 eb       	ldi	r24, 0xB5	; 181
    48be:	96 e0       	ldi	r25, 0x06	; 6
    48c0:	90 93 4a 07 	sts	0x074A, r25
    48c4:	80 93 49 07 	sts	0x0749, r24
    48c8:	89 ef       	ldi	r24, 0xF9	; 249
    48ca:	96 e0       	ldi	r25, 0x06	; 6
    48cc:	90 93 4c 07 	sts	0x074C, r25
    48d0:	80 93 4b 07 	sts	0x074B, r24
    48d4:	85 ec       	ldi	r24, 0xC5	; 197
    48d6:	90 e0       	ldi	r25, 0x00	; 0
    48d8:	90 93 4e 07 	sts	0x074E, r25
    48dc:	80 93 4d 07 	sts	0x074D, r24
    48e0:	84 ec       	ldi	r24, 0xC4	; 196
    48e2:	90 e0       	ldi	r25, 0x00	; 0
    48e4:	90 93 50 07 	sts	0x0750, r25
    48e8:	80 93 4f 07 	sts	0x074F, r24
    48ec:	80 ec       	ldi	r24, 0xC0	; 192
    48ee:	90 e0       	ldi	r25, 0x00	; 0
    48f0:	90 93 52 07 	sts	0x0752, r25
    48f4:	80 93 51 07 	sts	0x0751, r24
    48f8:	81 ec       	ldi	r24, 0xC1	; 193
    48fa:	90 e0       	ldi	r25, 0x00	; 0
    48fc:	90 93 54 07 	sts	0x0754, r25
    4900:	80 93 53 07 	sts	0x0753, r24
    4904:	82 ec       	ldi	r24, 0xC2	; 194
    4906:	90 e0       	ldi	r25, 0x00	; 0
    4908:	90 93 56 07 	sts	0x0756, r25
    490c:	80 93 55 07 	sts	0x0755, r24
    4910:	86 ec       	ldi	r24, 0xC6	; 198
    4912:	90 e0       	ldi	r25, 0x00	; 0
    4914:	90 93 58 07 	sts	0x0758, r25
    4918:	80 93 57 07 	sts	0x0757, r24
    491c:	84 e0       	ldi	r24, 0x04	; 4
    491e:	80 93 59 07 	sts	0x0759, r24
    4922:	83 e0       	ldi	r24, 0x03	; 3
    4924:	80 93 5a 07 	sts	0x075A, r24
    4928:	87 e0       	ldi	r24, 0x07	; 7
    492a:	80 93 5b 07 	sts	0x075B, r24
    492e:	85 e0       	ldi	r24, 0x05	; 5
    4930:	80 93 5c 07 	sts	0x075C, r24
    4934:	81 e0       	ldi	r24, 0x01	; 1
    4936:	80 93 5d 07 	sts	0x075D, r24
    493a:	08 95       	ret
    493c:	cf 92       	push	r12
    493e:	df 92       	push	r13
    4940:	ef 92       	push	r14
    4942:	ff 92       	push	r15
    4944:	0f 93       	push	r16
    4946:	1f 93       	push	r17
    4948:	cf 93       	push	r28
    494a:	df 93       	push	r29
    494c:	7c 01       	movw	r14, r24
    494e:	6b 01       	movw	r12, r22
    4950:	8a 01       	movw	r16, r20
    4952:	c0 e0       	ldi	r28, 0x00	; 0
    4954:	d0 e0       	ldi	r29, 0x00	; 0
    4956:	0f c0       	rjmp	.+30     	;  0x4976
    4958:	d6 01       	movw	r26, r12
    495a:	6d 91       	ld	r22, X+
    495c:	6d 01       	movw	r12, r26
    495e:	d7 01       	movw	r26, r14
    4960:	ed 91       	ld	r30, X+
    4962:	fc 91       	ld	r31, X
    4964:	01 90       	ld	r0, Z+
    4966:	f0 81       	ld	r31, Z
    4968:	e0 2d       	mov	r30, r0
    496a:	c7 01       	movw	r24, r14
    496c:	09 95       	icall
    496e:	c8 0f       	add	r28, r24
    4970:	d9 1f       	adc	r29, r25
    4972:	01 50       	subi	r16, 0x01	; 1
    4974:	10 40       	sbci	r17, 0x00	; 0
    4976:	01 15       	cp	r16, r1
    4978:	11 05       	cpc	r17, r1
    497a:	71 f7       	brne	.-36     	;  0x4958
    497c:	ce 01       	movw	r24, r28
    497e:	df 91       	pop	r29
    4980:	cf 91       	pop	r28
    4982:	1f 91       	pop	r17
    4984:	0f 91       	pop	r16
    4986:	ff 90       	pop	r15
    4988:	ef 90       	pop	r14
    498a:	df 90       	pop	r13
    498c:	cf 90       	pop	r12
    498e:	08 95       	ret
    4990:	ef 92       	push	r14
    4992:	ff 92       	push	r15
    4994:	0f 93       	push	r16
    4996:	1f 93       	push	r17
    4998:	cf 93       	push	r28
    499a:	df 93       	push	r29
    499c:	7c 01       	movw	r14, r24
    499e:	8b 01       	movw	r16, r22
    49a0:	c0 e0       	ldi	r28, 0x00	; 0
    49a2:	d0 e0       	ldi	r29, 0x00	; 0
    49a4:	f8 01       	movw	r30, r16
    49a6:	0f 5f       	subi	r16, 0xFF	; 255
    49a8:	1f 4f       	sbci	r17, 0xFF	; 255
    49aa:	64 91       	lpm	r22, Z+
    49ac:	66 23       	and	r22, r22
    49ae:	59 f0       	breq	.+22     	;  0x49c6
    49b0:	d7 01       	movw	r26, r14
    49b2:	ed 91       	ld	r30, X+
    49b4:	fc 91       	ld	r31, X
    49b6:	01 90       	ld	r0, Z+
    49b8:	f0 81       	ld	r31, Z
    49ba:	e0 2d       	mov	r30, r0
    49bc:	c7 01       	movw	r24, r14
    49be:	09 95       	icall
    49c0:	c8 0f       	add	r28, r24
    49c2:	d9 1f       	adc	r29, r25
    49c4:	ef cf       	rjmp	.-34     	;  0x49a4
    49c6:	ce 01       	movw	r24, r28
    49c8:	df 91       	pop	r29
    49ca:	cf 91       	pop	r28
    49cc:	1f 91       	pop	r17
    49ce:	0f 91       	pop	r16
    49d0:	ff 90       	pop	r15
    49d2:	ef 90       	pop	r14
    49d4:	08 95       	ret
    49d6:	dc 01       	movw	r26, r24
    49d8:	ed 91       	ld	r30, X+
    49da:	fc 91       	ld	r31, X
    49dc:	01 90       	ld	r0, Z+
    49de:	f0 81       	ld	r31, Z
    49e0:	e0 2d       	mov	r30, r0
    49e2:	09 95       	icall
    49e4:	08 95       	ret
    49e6:	ef 92       	push	r14
    49e8:	ff 92       	push	r15
    49ea:	0f 93       	push	r16
    49ec:	1f 93       	push	r17
    49ee:	8c 01       	movw	r16, r24
    49f0:	dc 01       	movw	r26, r24
    49f2:	ed 91       	ld	r30, X+
    49f4:	fc 91       	ld	r31, X
    49f6:	01 90       	ld	r0, Z+
    49f8:	f0 81       	ld	r31, Z
    49fa:	e0 2d       	mov	r30, r0
    49fc:	6d e0       	ldi	r22, 0x0D	; 13
    49fe:	09 95       	icall
    4a00:	7c 01       	movw	r14, r24
    4a02:	d8 01       	movw	r26, r16
    4a04:	ed 91       	ld	r30, X+
    4a06:	fc 91       	ld	r31, X
    4a08:	01 90       	ld	r0, Z+
    4a0a:	f0 81       	ld	r31, Z
    4a0c:	e0 2d       	mov	r30, r0
    4a0e:	c8 01       	movw	r24, r16
    4a10:	6a e0       	ldi	r22, 0x0A	; 10
    4a12:	09 95       	icall
    4a14:	9c 01       	movw	r18, r24
    4a16:	2e 0d       	add	r18, r14
    4a18:	3f 1d       	adc	r19, r15
    4a1a:	c9 01       	movw	r24, r18
    4a1c:	1f 91       	pop	r17
    4a1e:	0f 91       	pop	r16
    4a20:	ff 90       	pop	r15
    4a22:	ef 90       	pop	r14
    4a24:	08 95       	ret
    4a26:	ef 92       	push	r14
    4a28:	ff 92       	push	r15
    4a2a:	0f 93       	push	r16
    4a2c:	1f 93       	push	r17
    4a2e:	7c 01       	movw	r14, r24
    4a30:	af df       	rcall	.-162    	;  0x4990
    4a32:	8c 01       	movw	r16, r24
    4a34:	c7 01       	movw	r24, r14
    4a36:	d7 df       	rcall	.-82     	;  0x49e6
    4a38:	9c 01       	movw	r18, r24
    4a3a:	20 0f       	add	r18, r16
    4a3c:	31 1f       	adc	r19, r17
    4a3e:	c9 01       	movw	r24, r18
    4a40:	1f 91       	pop	r17
    4a42:	0f 91       	pop	r16
    4a44:	ff 90       	pop	r15
    4a46:	ef 90       	pop	r14
    4a48:	08 95       	ret
    4a4a:	cf 93       	push	r28
    4a4c:	df 93       	push	r29
    4a4e:	ec 01       	movw	r28, r24
    4a50:	61 15       	cp	r22, r1
    4a52:	71 05       	cpc	r23, r1
    4a54:	19 f4       	brne	.+6      	;  0x4a5c
    4a56:	20 e0       	ldi	r18, 0x00	; 0
    4a58:	30 e0       	ldi	r19, 0x00	; 0
    4a5a:	0f c0       	rjmp	.+30     	;  0x4a7a
    4a5c:	db 01       	movw	r26, r22
    4a5e:	0d 90       	ld	r0, X+
    4a60:	00 20       	and	r0, r0
    4a62:	e9 f7       	brne	.-6      	;  0x4a5e
    4a64:	11 97       	sbiw	r26, 0x01	; 1
    4a66:	a6 1b       	sub	r26, r22
    4a68:	b7 0b       	sbc	r27, r23
    4a6a:	e8 81       	ld	r30, Y
    4a6c:	f9 81       	ldd	r31, Y+1	; 0x01
    4a6e:	02 80       	ldd	r0, Z+2	; 0x02
    4a70:	f3 81       	ldd	r31, Z+3	; 0x03
    4a72:	e0 2d       	mov	r30, r0
    4a74:	ad 01       	movw	r20, r26
    4a76:	09 95       	icall
    4a78:	9c 01       	movw	r18, r24
    4a7a:	c9 01       	movw	r24, r18
    4a7c:	df 91       	pop	r29
    4a7e:	cf 91       	pop	r28
    4a80:	08 95       	ret
    4a82:	4f 92       	push	r4
    4a84:	5f 92       	push	r5
    4a86:	7f 92       	push	r7
    4a88:	8f 92       	push	r8
    4a8a:	9f 92       	push	r9
    4a8c:	af 92       	push	r10
    4a8e:	bf 92       	push	r11
    4a90:	cf 92       	push	r12
    4a92:	df 92       	push	r13
    4a94:	ef 92       	push	r14
    4a96:	ff 92       	push	r15
    4a98:	0f 93       	push	r16
    4a9a:	1f 93       	push	r17
    4a9c:	df 93       	push	r29
    4a9e:	cf 93       	push	r28
    4aa0:	cd b7       	in	r28, 0x3d	; 61
    4aa2:	de b7       	in	r29, 0x3e	; 62
    4aa4:	a1 97       	sbiw	r28, 0x21	; 33
    4aa6:	0f b6       	in	r0, 0x3f	; 63
    4aa8:	f8 94       	cli
    4aaa:	de bf       	out	0x3e, r29	; 62
    4aac:	0f be       	out	0x3f, r0	; 63
    4aae:	cd bf       	out	0x3d, r28	; 61
    4ab0:	2c 01       	movw	r4, r24
    4ab2:	74 2e       	mov	r7, r20
    4ab4:	cb 01       	movw	r24, r22
    4ab6:	22 30       	cpi	r18, 0x02	; 2
    4ab8:	08 f4       	brcc	.+2      	;  0x4abc
    4aba:	2a e0       	ldi	r18, 0x0A	; 10
    4abc:	19 a2       	std	Y+33, r1	; 0x21
    4abe:	31 e2       	ldi	r19, 0x21	; 33
    4ac0:	c3 2e       	mov	r12, r19
    4ac2:	d1 2c       	mov	r13, r1
    4ac4:	cc 0e       	add	r12, r28
    4ac6:	dd 1e       	adc	r13, r29
    4ac8:	82 2e       	mov	r8, r18
    4aca:	99 24       	eor	r9, r9
    4acc:	aa 24       	eor	r10, r10
    4ace:	bb 24       	eor	r11, r11
    4ad0:	67 2d       	mov	r22, r7
    4ad2:	75 2f       	mov	r23, r21
    4ad4:	a5 01       	movw	r20, r10
    4ad6:	94 01       	movw	r18, r8
    4ad8:	0e 94 30 2e 	call	0x5c60	;  0x5c60
    4adc:	79 01       	movw	r14, r18
    4ade:	8a 01       	movw	r16, r20
    4ae0:	c8 01       	movw	r24, r16
    4ae2:	b7 01       	movw	r22, r14
    4ae4:	a5 01       	movw	r20, r10
    4ae6:	94 01       	movw	r18, r8
    4ae8:	0e 94 ea 2d 	call	0x5bd4	;  0x5bd4
    4aec:	47 2d       	mov	r20, r7
    4aee:	46 1b       	sub	r20, r22
    4af0:	08 94       	sec
    4af2:	c1 08       	sbc	r12, r1
    4af4:	d1 08       	sbc	r13, r1
    4af6:	4a 30       	cpi	r20, 0x0A	; 10
    4af8:	14 f4       	brge	.+4      	;  0x4afe
    4afa:	40 5d       	subi	r20, 0xD0	; 208
    4afc:	01 c0       	rjmp	.+2      	;  0x4b00
    4afe:	49 5c       	subi	r20, 0xC9	; 201
    4b00:	f6 01       	movw	r30, r12
    4b02:	40 83       	st	Z, r20
    4b04:	e1 14       	cp	r14, r1
    4b06:	f1 04       	cpc	r15, r1
    4b08:	01 05       	cpc	r16, r1
    4b0a:	11 05       	cpc	r17, r1
    4b0c:	21 f0       	breq	.+8      	;  0x4b16
    4b0e:	7e 2c       	mov	r7, r14
    4b10:	5f 2d       	mov	r21, r15
    4b12:	c8 01       	movw	r24, r16
    4b14:	dd cf       	rjmp	.-70     	;  0x4ad0
    4b16:	c2 01       	movw	r24, r4
    4b18:	b6 01       	movw	r22, r12
    4b1a:	97 df       	rcall	.-210    	;  0x4a4a
    4b1c:	a1 96       	adiw	r28, 0x21	; 33
    4b1e:	0f b6       	in	r0, 0x3f	; 63
    4b20:	f8 94       	cli
    4b22:	de bf       	out	0x3e, r29	; 62
    4b24:	0f be       	out	0x3f, r0	; 63
    4b26:	cd bf       	out	0x3d, r28	; 61
    4b28:	cf 91       	pop	r28
    4b2a:	df 91       	pop	r29
    4b2c:	1f 91       	pop	r17
    4b2e:	0f 91       	pop	r16
    4b30:	ff 90       	pop	r15
    4b32:	ef 90       	pop	r14
    4b34:	df 90       	pop	r13
    4b36:	cf 90       	pop	r12
    4b38:	bf 90       	pop	r11
    4b3a:	af 90       	pop	r10
    4b3c:	9f 90       	pop	r9
    4b3e:	8f 90       	pop	r8
    4b40:	7f 90       	pop	r7
    4b42:	5f 90       	pop	r5
    4b44:	4f 90       	pop	r4
    4b46:	08 95       	ret
    4b48:	dc 01       	movw	r26, r24
    4b4a:	21 15       	cp	r18, r1
    4b4c:	31 05       	cpc	r19, r1
    4b4e:	41 f4       	brne	.+16     	;  0x4b60
    4b50:	ed 91       	ld	r30, X+
    4b52:	fc 91       	ld	r31, X
    4b54:	01 90       	ld	r0, Z+
    4b56:	f0 81       	ld	r31, Z
    4b58:	e0 2d       	mov	r30, r0
    4b5a:	64 2f       	mov	r22, r20
    4b5c:	09 95       	icall
    4b5e:	08 95       	ret
    4b60:	90 cf       	rjmp	.-224    	;  0x4a82
    4b62:	ef 92       	push	r14
    4b64:	ff 92       	push	r15
    4b66:	0f 93       	push	r16
    4b68:	1f 93       	push	r17
    4b6a:	7c 01       	movw	r14, r24
    4b6c:	ed df       	rcall	.-38     	;  0x4b48
    4b6e:	8c 01       	movw	r16, r24
    4b70:	c7 01       	movw	r24, r14
    4b72:	39 df       	rcall	.-398    	;  0x49e6
    4b74:	9c 01       	movw	r18, r24
    4b76:	20 0f       	add	r18, r16
    4b78:	31 1f       	adc	r19, r17
    4b7a:	c9 01       	movw	r24, r18
    4b7c:	1f 91       	pop	r17
    4b7e:	0f 91       	pop	r16
    4b80:	ff 90       	pop	r15
    4b82:	ef 90       	pop	r14
    4b84:	08 95       	ret
    4b86:	ef 92       	push	r14
    4b88:	ff 92       	push	r15
    4b8a:	0f 93       	push	r16
    4b8c:	1f 93       	push	r17
    4b8e:	9a 01       	movw	r18, r20
    4b90:	e6 2e       	mov	r14, r22
    4b92:	ff 24       	eor	r15, r15
    4b94:	00 e0       	ldi	r16, 0x00	; 0
    4b96:	10 e0       	ldi	r17, 0x00	; 0
    4b98:	b8 01       	movw	r22, r16
    4b9a:	a7 01       	movw	r20, r14
    4b9c:	d5 df       	rcall	.-86     	;  0x4b48
    4b9e:	1f 91       	pop	r17
    4ba0:	0f 91       	pop	r16
    4ba2:	ff 90       	pop	r15
    4ba4:	ef 90       	pop	r14
    4ba6:	08 95       	ret
    4ba8:	cf 92       	push	r12
    4baa:	df 92       	push	r13
    4bac:	ef 92       	push	r14
    4bae:	ff 92       	push	r15
    4bb0:	0f 93       	push	r16
    4bb2:	1f 93       	push	r17
    4bb4:	cf 93       	push	r28
    4bb6:	df 93       	push	r29
    4bb8:	ec 01       	movw	r28, r24
    4bba:	6a 01       	movw	r12, r20
    4bbc:	7b 01       	movw	r14, r22
    4bbe:	21 15       	cp	r18, r1
    4bc0:	31 05       	cpc	r19, r1
    4bc2:	41 f4       	brne	.+16     	;  0x4bd4
    4bc4:	e8 81       	ld	r30, Y
    4bc6:	f9 81       	ldd	r31, Y+1	; 0x01
    4bc8:	01 90       	ld	r0, Z+
    4bca:	f0 81       	ld	r31, Z
    4bcc:	e0 2d       	mov	r30, r0
    4bce:	64 2f       	mov	r22, r20
    4bd0:	09 95       	icall
    4bd2:	1d c0       	rjmp	.+58     	;  0x4c0e
    4bd4:	2a 30       	cpi	r18, 0x0A	; 10
    4bd6:	31 05       	cpc	r19, r1
    4bd8:	c9 f4       	brne	.+50     	;  0x4c0c
    4bda:	77 ff       	sbrs	r23, 7
    4bdc:	16 c0       	rjmp	.+44     	;  0x4c0a
    4bde:	e8 81       	ld	r30, Y
    4be0:	f9 81       	ldd	r31, Y+1	; 0x01
    4be2:	01 90       	ld	r0, Z+
    4be4:	f0 81       	ld	r31, Z
    4be6:	e0 2d       	mov	r30, r0
    4be8:	6d e2       	ldi	r22, 0x2D	; 45
    4bea:	09 95       	icall
    4bec:	8c 01       	movw	r16, r24
    4bee:	44 27       	eor	r20, r20
    4bf0:	55 27       	eor	r21, r21
    4bf2:	ba 01       	movw	r22, r20
    4bf4:	4c 19       	sub	r20, r12
    4bf6:	5d 09       	sbc	r21, r13
    4bf8:	6e 09       	sbc	r22, r14
    4bfa:	7f 09       	sbc	r23, r15
    4bfc:	ce 01       	movw	r24, r28
    4bfe:	2a e0       	ldi	r18, 0x0A	; 10
    4c00:	40 df       	rcall	.-384    	;  0x4a82
    4c02:	98 01       	movw	r18, r16
    4c04:	28 0f       	add	r18, r24
    4c06:	39 1f       	adc	r19, r25
    4c08:	03 c0       	rjmp	.+6      	;  0x4c10
    4c0a:	2a e0       	ldi	r18, 0x0A	; 10
    4c0c:	3a df       	rcall	.-396    	;  0x4a82
    4c0e:	9c 01       	movw	r18, r24
    4c10:	c9 01       	movw	r24, r18
    4c12:	df 91       	pop	r29
    4c14:	cf 91       	pop	r28
    4c16:	1f 91       	pop	r17
    4c18:	0f 91       	pop	r16
    4c1a:	ff 90       	pop	r15
    4c1c:	ef 90       	pop	r14
    4c1e:	df 90       	pop	r13
    4c20:	cf 90       	pop	r12
    4c22:	08 95       	ret
    4c24:	ef 92       	push	r14
    4c26:	ff 92       	push	r15
    4c28:	0f 93       	push	r16
    4c2a:	1f 93       	push	r17
    4c2c:	7b 01       	movw	r14, r22
    4c2e:	9a 01       	movw	r18, r20
    4c30:	00 27       	eor	r16, r16
    4c32:	f7 fc       	sbrc	r15, 7
    4c34:	00 95       	com	r16
    4c36:	10 2f       	mov	r17, r16
    4c38:	b8 01       	movw	r22, r16
    4c3a:	a7 01       	movw	r20, r14
    4c3c:	b5 df       	rcall	.-150    	;  0x4ba8
    4c3e:	1f 91       	pop	r17
    4c40:	0f 91       	pop	r16
    4c42:	ff 90       	pop	r15
    4c44:	ef 90       	pop	r14
    4c46:	08 95       	ret
    4c48:	cf 92       	push	r12
    4c4a:	df 92       	push	r13
    4c4c:	ef 92       	push	r14
    4c4e:	ff 92       	push	r15
    4c50:	0f 93       	push	r16
    4c52:	1f 93       	push	r17
    4c54:	6c 01       	movw	r12, r24
    4c56:	7b 01       	movw	r14, r22
    4c58:	9a 01       	movw	r18, r20
    4c5a:	00 27       	eor	r16, r16
    4c5c:	f7 fc       	sbrc	r15, 7
    4c5e:	00 95       	com	r16
    4c60:	10 2f       	mov	r17, r16
    4c62:	b8 01       	movw	r22, r16
    4c64:	a7 01       	movw	r20, r14
    4c66:	a0 df       	rcall	.-192    	;  0x4ba8
    4c68:	8c 01       	movw	r16, r24
    4c6a:	c6 01       	movw	r24, r12
    4c6c:	bc de       	rcall	.-648    	;  0x49e6
    4c6e:	08 0f       	add	r16, r24
    4c70:	19 1f       	adc	r17, r25
    4c72:	c8 01       	movw	r24, r16
    4c74:	1f 91       	pop	r17
    4c76:	0f 91       	pop	r16
    4c78:	ff 90       	pop	r15
    4c7a:	ef 90       	pop	r14
    4c7c:	df 90       	pop	r13
    4c7e:	cf 90       	pop	r12
    4c80:	08 95       	ret
    4c82:	e3 ce       	rjmp	.-570    	;  0x4a4a
    4c84:	08 95       	ret
    4c86:	7f 92       	push	r7
    4c88:	8f 92       	push	r8
    4c8a:	9f 92       	push	r9
    4c8c:	af 92       	push	r10
    4c8e:	bf 92       	push	r11
    4c90:	cf 92       	push	r12
    4c92:	df 92       	push	r13
    4c94:	ef 92       	push	r14
    4c96:	ff 92       	push	r15
    4c98:	0f 93       	push	r16
    4c9a:	1f 93       	push	r17
    4c9c:	cf 93       	push	r28
    4c9e:	df 93       	push	r29
    4ca0:	4c 01       	movw	r8, r24
    4ca2:	7a 01       	movw	r14, r20
    4ca4:	8b 01       	movw	r16, r22
    4ca6:	72 2e       	mov	r7, r18
    4ca8:	cb 01       	movw	r24, r22
    4caa:	ba 01       	movw	r22, r20
    4cac:	a8 01       	movw	r20, r16
    4cae:	97 01       	movw	r18, r14
    4cb0:	6b d7       	rcall	.+3798   	;  0x5b88
    4cb2:	88 23       	and	r24, r24
    4cb4:	21 f0       	breq	.+8      	;  0x4cbe
    4cb6:	c4 01       	movw	r24, r8
    4cb8:	62 ea       	ldi	r22, 0xA2	; 162
    4cba:	72 e0       	ldi	r23, 0x02	; 2
    4cbc:	1f c0       	rjmp	.+62     	;  0x4cfc
    4cbe:	c0 e0       	ldi	r28, 0x00	; 0
    4cc0:	d0 e0       	ldi	r29, 0x00	; 0
    4cc2:	57 01       	movw	r10, r14
    4cc4:	68 01       	movw	r12, r16
    4cc6:	e8 94       	clt
    4cc8:	d7 f8       	bld	r13, 7
    4cca:	c6 01       	movw	r24, r12
    4ccc:	b5 01       	movw	r22, r10
    4cce:	2f ef       	ldi	r18, 0xFF	; 255
    4cd0:	3f ef       	ldi	r19, 0xFF	; 255
    4cd2:	4f e7       	ldi	r20, 0x7F	; 127
    4cd4:	5f e7       	ldi	r21, 0x7F	; 127
    4cd6:	58 d7       	rcall	.+3760   	;  0x5b88
    4cd8:	88 23       	and	r24, r24
    4cda:	49 f4       	brne	.+18     	;  0x4cee
    4cdc:	c6 01       	movw	r24, r12
    4cde:	b5 01       	movw	r22, r10
    4ce0:	2f ef       	ldi	r18, 0xFF	; 255
    4ce2:	3f ef       	ldi	r19, 0xFF	; 255
    4ce4:	4f e7       	ldi	r20, 0x7F	; 127
    4ce6:	5f e7       	ldi	r21, 0x7F	; 127
    4ce8:	c0 d4       	rcall	.+2432   	;  0x566a
    4cea:	18 16       	cp	r1, r24
    4cec:	14 f0       	brlt	.+4      	;  0x4cf2
    4cee:	c1 e0       	ldi	r28, 0x01	; 1
    4cf0:	d0 e0       	ldi	r29, 0x00	; 0
    4cf2:	21 97       	sbiw	r28, 0x01	; 1
    4cf4:	31 f0       	breq	.+12     	;  0x4d02
    4cf6:	c4 01       	movw	r24, r8
    4cf8:	66 ea       	ldi	r22, 0xA6	; 166
    4cfa:	72 e0       	ldi	r23, 0x02	; 2
    4cfc:	a6 de       	rcall	.-692    	;  0x4a4a
    4cfe:	ec 01       	movw	r28, r24
    4d00:	84 c0       	rjmp	.+264    	;  0x4e0a
    4d02:	c8 01       	movw	r24, r16
    4d04:	b7 01       	movw	r22, r14
    4d06:	2f ef       	ldi	r18, 0xFF	; 255
    4d08:	3f ef       	ldi	r19, 0xFF	; 255
    4d0a:	4f e7       	ldi	r20, 0x7F	; 127
    4d0c:	5f e4       	ldi	r21, 0x4F	; 79
    4d0e:	77 d6       	rcall	.+3310   	;  0x59fe
    4d10:	18 16       	cp	r1, r24
    4d12:	4c f0       	brlt	.+18     	;  0x4d26
    4d14:	c8 01       	movw	r24, r16
    4d16:	b7 01       	movw	r22, r14
    4d18:	2f ef       	ldi	r18, 0xFF	; 255
    4d1a:	3f ef       	ldi	r19, 0xFF	; 255
    4d1c:	4f e7       	ldi	r20, 0x7F	; 127
    4d1e:	5f ec       	ldi	r21, 0xCF	; 207
    4d20:	a4 d4       	rcall	.+2376   	;  0x566a
    4d22:	88 23       	and	r24, r24
    4d24:	24 f4       	brge	.+8      	;  0x4d2e
    4d26:	c4 01       	movw	r24, r8
    4d28:	6a ea       	ldi	r22, 0xAA	; 170
    4d2a:	72 e0       	ldi	r23, 0x02	; 2
    4d2c:	e7 cf       	rjmp	.-50     	;  0x4cfc
    4d2e:	c8 01       	movw	r24, r16
    4d30:	b7 01       	movw	r22, r14
    4d32:	20 e0       	ldi	r18, 0x00	; 0
    4d34:	30 e0       	ldi	r19, 0x00	; 0
    4d36:	40 e0       	ldi	r20, 0x00	; 0
    4d38:	50 e0       	ldi	r21, 0x00	; 0
    4d3a:	97 d4       	rcall	.+2350   	;  0x566a
    4d3c:	87 fd       	sbrc	r24, 7
    4d3e:	03 c0       	rjmp	.+6      	;  0x4d46
    4d40:	c0 e0       	ldi	r28, 0x00	; 0
    4d42:	d0 e0       	ldi	r29, 0x00	; 0
    4d44:	0e c0       	rjmp	.+28     	;  0x4d62
    4d46:	d4 01       	movw	r26, r8
    4d48:	ed 91       	ld	r30, X+
    4d4a:	fc 91       	ld	r31, X
    4d4c:	01 90       	ld	r0, Z+
    4d4e:	f0 81       	ld	r31, Z
    4d50:	e0 2d       	mov	r30, r0
    4d52:	c4 01       	movw	r24, r8
    4d54:	6d e2       	ldi	r22, 0x2D	; 45
    4d56:	09 95       	icall
    4d58:	ec 01       	movw	r28, r24
    4d5a:	17 fb       	bst	r17, 7
    4d5c:	10 95       	com	r17
    4d5e:	17 f9       	bld	r17, 7
    4d60:	10 95       	com	r17
    4d62:	20 e0       	ldi	r18, 0x00	; 0
    4d64:	30 e0       	ldi	r19, 0x00	; 0
    4d66:	40 e0       	ldi	r20, 0x00	; 0
    4d68:	5f e3       	ldi	r21, 0x3F	; 63
    4d6a:	dd 24       	eor	r13, r13
    4d6c:	0a c0       	rjmp	.+20     	;  0x4d82
    4d6e:	ca 01       	movw	r24, r20
    4d70:	b9 01       	movw	r22, r18
    4d72:	20 e0       	ldi	r18, 0x00	; 0
    4d74:	30 e0       	ldi	r19, 0x00	; 0
    4d76:	40 e2       	ldi	r20, 0x20	; 32
    4d78:	51 e4       	ldi	r21, 0x41	; 65
    4d7a:	7e d4       	rcall	.+2300   	;  0x5678
    4d7c:	9b 01       	movw	r18, r22
    4d7e:	ac 01       	movw	r20, r24
    4d80:	d3 94       	inc	r13
    4d82:	d7 14       	cp	r13, r7
    4d84:	a0 f3       	brcs	.-24     	;  0x4d6e
    4d86:	c8 01       	movw	r24, r16
    4d88:	b7 01       	movw	r22, r14
    4d8a:	a9 d3       	rcall	.+1874   	;  0x54de
    4d8c:	5b 01       	movw	r10, r22
    4d8e:	6c 01       	movw	r12, r24
    4d90:	e0 d4       	rcall	.+2496   	;  0x5752
    4d92:	7b 01       	movw	r14, r22
    4d94:	8c 01       	movw	r16, r24
    4d96:	c4 01       	movw	r24, r8
    4d98:	b8 01       	movw	r22, r16
    4d9a:	a7 01       	movw	r20, r14
    4d9c:	2a e0       	ldi	r18, 0x0A	; 10
    4d9e:	30 e0       	ldi	r19, 0x00	; 0
    4da0:	d3 de       	rcall	.-602    	;  0x4b48
    4da2:	c8 0f       	add	r28, r24
    4da4:	d9 1f       	adc	r29, r25
    4da6:	77 20       	and	r7, r7
    4da8:	31 f0       	breq	.+12     	;  0x4db6
    4daa:	c4 01       	movw	r24, r8
    4dac:	6e ea       	ldi	r22, 0xAE	; 174
    4dae:	72 e0       	ldi	r23, 0x02	; 2
    4db0:	4c de       	rcall	.-872    	;  0x4a4a
    4db2:	c8 0f       	add	r28, r24
    4db4:	d9 1f       	adc	r29, r25
    4db6:	c8 01       	movw	r24, r16
    4db8:	b7 01       	movw	r22, r14
    4dba:	f7 d4       	rcall	.+2542   	;  0x57aa
    4dbc:	9b 01       	movw	r18, r22
    4dbe:	ac 01       	movw	r20, r24
    4dc0:	c6 01       	movw	r24, r12
    4dc2:	b5 01       	movw	r22, r10
    4dc4:	8b d3       	rcall	.+1814   	;  0x54dc
    4dc6:	1f c0       	rjmp	.+62     	;  0x4e06
    4dc8:	20 e0       	ldi	r18, 0x00	; 0
    4dca:	30 e0       	ldi	r19, 0x00	; 0
    4dcc:	40 e2       	ldi	r20, 0x20	; 32
    4dce:	51 e4       	ldi	r21, 0x41	; 65
    4dd0:	21 d6       	rcall	.+3138   	;  0x5a14
    4dd2:	7b 01       	movw	r14, r22
    4dd4:	8c 01       	movw	r16, r24
    4dd6:	b8 d4       	rcall	.+2416   	;  0x5748
    4dd8:	5b 01       	movw	r10, r22
    4dda:	6c 01       	movw	r12, r24
    4ddc:	cc 24       	eor	r12, r12
    4dde:	b7 fc       	sbrc	r11, 7
    4de0:	c0 94       	com	r12
    4de2:	dc 2c       	mov	r13, r12
    4de4:	c4 01       	movw	r24, r8
    4de6:	b6 01       	movw	r22, r12
    4de8:	a5 01       	movw	r20, r10
    4dea:	2a e0       	ldi	r18, 0x0A	; 10
    4dec:	30 e0       	ldi	r19, 0x00	; 0
    4dee:	dc de       	rcall	.-584    	;  0x4ba8
    4df0:	c8 0f       	add	r28, r24
    4df2:	d9 1f       	adc	r29, r25
    4df4:	c6 01       	movw	r24, r12
    4df6:	b5 01       	movw	r22, r10
    4df8:	da d4       	rcall	.+2484   	;  0x57ae
    4dfa:	9b 01       	movw	r18, r22
    4dfc:	ac 01       	movw	r20, r24
    4dfe:	c8 01       	movw	r24, r16
    4e00:	b7 01       	movw	r22, r14
    4e02:	6c d3       	rcall	.+1752   	;  0x54dc
    4e04:	7a 94       	dec	r7
    4e06:	77 20       	and	r7, r7
    4e08:	f9 f6       	brne	.-66     	;  0x4dc8
    4e0a:	ce 01       	movw	r24, r28
    4e0c:	df 91       	pop	r29
    4e0e:	cf 91       	pop	r28
    4e10:	1f 91       	pop	r17
    4e12:	0f 91       	pop	r16
    4e14:	ff 90       	pop	r15
    4e16:	ef 90       	pop	r14
    4e18:	df 90       	pop	r13
    4e1a:	cf 90       	pop	r12
    4e1c:	bf 90       	pop	r11
    4e1e:	af 90       	pop	r10
    4e20:	9f 90       	pop	r9
    4e22:	8f 90       	pop	r8
    4e24:	7f 90       	pop	r7
    4e26:	08 95       	ret
    4e28:	2e cf       	rjmp	.-420    	;  0x4c86
    4e2a:	08 95       	ret
    4e2c:	ef 92       	push	r14
    4e2e:	ff 92       	push	r15
    4e30:	0f 93       	push	r16
    4e32:	1f 93       	push	r17
    4e34:	7c 01       	movw	r14, r24
    4e36:	27 df       	rcall	.-434    	;  0x4c86
    4e38:	8c 01       	movw	r16, r24
    4e3a:	c7 01       	movw	r24, r14
    4e3c:	d4 dd       	rcall	.-1112   	;  0x49e6
    4e3e:	08 0f       	add	r16, r24
    4e40:	19 1f       	adc	r17, r25
    4e42:	c8 01       	movw	r24, r16
    4e44:	1f 91       	pop	r17
    4e46:	0f 91       	pop	r16
    4e48:	ff 90       	pop	r15
    4e4a:	ef 90       	pop	r14
    4e4c:	08 95       	ret
    4e4e:	ef 92       	push	r14
    4e50:	ff 92       	push	r15
    4e52:	0f 93       	push	r16
    4e54:	1f 93       	push	r17
    4e56:	7c 01       	movw	r14, r24
    4e58:	f8 dd       	rcall	.-1040   	;  0x4a4a
    4e5a:	8c 01       	movw	r16, r24
    4e5c:	c7 01       	movw	r24, r14
    4e5e:	c3 dd       	rcall	.-1146   	;  0x49e6
    4e60:	08 0f       	add	r16, r24
    4e62:	19 1f       	adc	r17, r25
    4e64:	c8 01       	movw	r24, r16
    4e66:	1f 91       	pop	r17
    4e68:	0f 91       	pop	r16
    4e6a:	ff 90       	pop	r15
    4e6c:	ef 90       	pop	r14
    4e6e:	08 95       	ret
    4e70:	2f 92       	push	r2
    4e72:	3f 92       	push	r3
    4e74:	4f 92       	push	r4
    4e76:	5f 92       	push	r5
    4e78:	6f 92       	push	r6
    4e7a:	7f 92       	push	r7
    4e7c:	8f 92       	push	r8
    4e7e:	9f 92       	push	r9
    4e80:	af 92       	push	r10
    4e82:	bf 92       	push	r11
    4e84:	cf 92       	push	r12
    4e86:	df 92       	push	r13
    4e88:	ef 92       	push	r14
    4e8a:	ff 92       	push	r15
    4e8c:	0f 93       	push	r16
    4e8e:	1f 93       	push	r17
    4e90:	df 93       	push	r29
    4e92:	cf 93       	push	r28
    4e94:	cd b7       	in	r28, 0x3d	; 61
    4e96:	de b7       	in	r29, 0x3e	; 62
    4e98:	3b 01       	movw	r6, r22
    4e9a:	4c 01       	movw	r8, r24
    4e9c:	19 01       	movw	r2, r18
    4e9e:	2a 01       	movw	r4, r20
    4ea0:	6d 89       	ldd	r22, Y+21	; 0x15
    4ea2:	7e 89       	ldd	r23, Y+22	; 0x16
    4ea4:	8f 89       	ldd	r24, Y+23	; 0x17
    4ea6:	98 8d       	ldd	r25, Y+24	; 0x18
    4ea8:	6a 19       	sub	r22, r10
    4eaa:	7b 09       	sbc	r23, r11
    4eac:	8c 09       	sbc	r24, r12
    4eae:	9d 09       	sbc	r25, r13
    4eb0:	62 1a       	sub	r6, r18
    4eb2:	73 0a       	sbc	r7, r19
    4eb4:	84 0a       	sbc	r8, r20
    4eb6:	95 0a       	sbc	r9, r21
    4eb8:	a4 01       	movw	r20, r8
    4eba:	93 01       	movw	r18, r6
    4ebc:	8b d6       	rcall	.+3350   	;  0x5bd4
    4ebe:	e2 18       	sub	r14, r2
    4ec0:	f3 08       	sbc	r15, r3
    4ec2:	04 09       	sbc	r16, r4
    4ec4:	15 09       	sbc	r17, r5
    4ec6:	a8 01       	movw	r20, r16
    4ec8:	97 01       	movw	r18, r14
    4eca:	ec d6       	rcall	.+3544   	;  0x5ca4
    4ecc:	2a 0d       	add	r18, r10
    4ece:	3b 1d       	adc	r19, r11
    4ed0:	4c 1d       	adc	r20, r12
    4ed2:	5d 1d       	adc	r21, r13
    4ed4:	b9 01       	movw	r22, r18
    4ed6:	ca 01       	movw	r24, r20
    4ed8:	cf 91       	pop	r28
    4eda:	df 91       	pop	r29
    4edc:	1f 91       	pop	r17
    4ede:	0f 91       	pop	r16
    4ee0:	ff 90       	pop	r15
    4ee2:	ef 90       	pop	r14
    4ee4:	df 90       	pop	r13
    4ee6:	cf 90       	pop	r12
    4ee8:	bf 90       	pop	r11
    4eea:	af 90       	pop	r10
    4eec:	9f 90       	pop	r9
    4eee:	8f 90       	pop	r8
    4ef0:	7f 90       	pop	r7
    4ef2:	6f 90       	pop	r6
    4ef4:	5f 90       	pop	r5
    4ef6:	4f 90       	pop	r4
    4ef8:	3f 90       	pop	r3
    4efa:	2f 90       	pop	r2
    4efc:	08 95       	ret
    4efe:	cf 93       	push	r28
    4f00:	df 93       	push	r29
    4f02:	e9 d0       	rcall	.+466    	;  0x50d6
    4f04:	0e 94 40 18 	call	0x3080	;  0x3080
    4f08:	ca ec       	ldi	r28, 0xCA	; 202
    4f0a:	d2 e2       	ldi	r29, 0x22	; 34
    4f0c:	0e 94 2f 15 	call	0x2a5e	;  0x2a5e
    4f10:	20 97       	sbiw	r28, 0x00	; 0
    4f12:	e1 f3       	breq	.-8      	;  0x4f0c
    4f14:	3f db       	rcall	.-2434   	;  0x4594
    4f16:	fa cf       	rjmp	.-12     	;  0x4f0c
    4f18:	1f 92       	push	r1
    4f1a:	0f 92       	push	r0
    4f1c:	0f b6       	in	r0, 0x3f	; 63
    4f1e:	0f 92       	push	r0
    4f20:	11 24       	eor	r1, r1
    4f22:	2f 93       	push	r18
    4f24:	3f 93       	push	r19
    4f26:	8f 93       	push	r24
    4f28:	9f 93       	push	r25
    4f2a:	af 93       	push	r26
    4f2c:	bf 93       	push	r27
    4f2e:	80 91 63 07 	lds	r24, 0x0763
    4f32:	90 91 64 07 	lds	r25, 0x0764
    4f36:	a0 91 65 07 	lds	r26, 0x0765
    4f3a:	b0 91 66 07 	lds	r27, 0x0766
    4f3e:	30 91 67 07 	lds	r19, 0x0767
    4f42:	01 96       	adiw	r24, 0x01	; 1
    4f44:	a1 1d       	adc	r26, r1
    4f46:	b1 1d       	adc	r27, r1
    4f48:	23 2f       	mov	r18, r19
    4f4a:	2d 5f       	subi	r18, 0xFD	; 253
    4f4c:	2d 37       	cpi	r18, 0x7D	; 125
    4f4e:	20 f0       	brcs	.+8      	;  0x4f58
    4f50:	2d 57       	subi	r18, 0x7D	; 125
    4f52:	01 96       	adiw	r24, 0x01	; 1
    4f54:	a1 1d       	adc	r26, r1
    4f56:	b1 1d       	adc	r27, r1
    4f58:	20 93 67 07 	sts	0x0767, r18
    4f5c:	80 93 63 07 	sts	0x0763, r24
    4f60:	90 93 64 07 	sts	0x0764, r25
    4f64:	a0 93 65 07 	sts	0x0765, r26
    4f68:	b0 93 66 07 	sts	0x0766, r27
    4f6c:	80 91 5f 07 	lds	r24, 0x075F
    4f70:	90 91 60 07 	lds	r25, 0x0760
    4f74:	a0 91 61 07 	lds	r26, 0x0761
    4f78:	b0 91 62 07 	lds	r27, 0x0762
    4f7c:	01 96       	adiw	r24, 0x01	; 1
    4f7e:	a1 1d       	adc	r26, r1
    4f80:	b1 1d       	adc	r27, r1
    4f82:	80 93 5f 07 	sts	0x075F, r24
    4f86:	90 93 60 07 	sts	0x0760, r25
    4f8a:	a0 93 61 07 	sts	0x0761, r26
    4f8e:	b0 93 62 07 	sts	0x0762, r27
    4f92:	bf 91       	pop	r27
    4f94:	af 91       	pop	r26
    4f96:	9f 91       	pop	r25
    4f98:	8f 91       	pop	r24
    4f9a:	3f 91       	pop	r19
    4f9c:	2f 91       	pop	r18
    4f9e:	0f 90       	pop	r0
    4fa0:	0f be       	out	0x3f, r0	; 63
    4fa2:	0f 90       	pop	r0
    4fa4:	1f 90       	pop	r1
    4fa6:	18 95       	reti
    4fa8:	8f b7       	in	r24, 0x3f	; 63
    4faa:	f8 94       	cli
    4fac:	20 91 63 07 	lds	r18, 0x0763
    4fb0:	30 91 64 07 	lds	r19, 0x0764
    4fb4:	40 91 65 07 	lds	r20, 0x0765
    4fb8:	50 91 66 07 	lds	r21, 0x0766
    4fbc:	8f bf       	out	0x3f, r24	; 63
    4fbe:	b9 01       	movw	r22, r18
    4fc0:	ca 01       	movw	r24, r20
    4fc2:	08 95       	ret
    4fc4:	9f b7       	in	r25, 0x3f	; 63
    4fc6:	f8 94       	cli
    4fc8:	20 91 5f 07 	lds	r18, 0x075F
    4fcc:	30 91 60 07 	lds	r19, 0x0760
    4fd0:	40 91 61 07 	lds	r20, 0x0761
    4fd4:	50 91 62 07 	lds	r21, 0x0762
    4fd8:	86 b5       	in	r24, 0x26	; 38
    4fda:	a8 9b       	sbis	0x15, 0	; 21
    4fdc:	06 c0       	rjmp	.+12     	;  0x4fea
    4fde:	8f 3f       	cpi	r24, 0xFF	; 255
    4fe0:	21 f0       	breq	.+8      	;  0x4fea
    4fe2:	2f 5f       	subi	r18, 0xFF	; 255
    4fe4:	3f 4f       	sbci	r19, 0xFF	; 255
    4fe6:	4f 4f       	sbci	r20, 0xFF	; 255
    4fe8:	5f 4f       	sbci	r21, 0xFF	; 255
    4fea:	9f bf       	out	0x3f, r25	; 63
    4fec:	54 2f       	mov	r21, r20
    4fee:	43 2f       	mov	r20, r19
    4ff0:	32 2f       	mov	r19, r18
    4ff2:	22 27       	eor	r18, r18
    4ff4:	28 0f       	add	r18, r24
    4ff6:	31 1d       	adc	r19, r1
    4ff8:	41 1d       	adc	r20, r1
    4ffa:	51 1d       	adc	r21, r1
    4ffc:	82 e0       	ldi	r24, 0x02	; 2
    4ffe:	22 0f       	add	r18, r18
    5000:	33 1f       	adc	r19, r19
    5002:	44 1f       	adc	r20, r20
    5004:	55 1f       	adc	r21, r21
    5006:	8a 95       	dec	r24
    5008:	d1 f7       	brne	.-12     	;  0x4ffe
    500a:	b9 01       	movw	r22, r18
    500c:	ca 01       	movw	r24, r20
    500e:	08 95       	ret
    5010:	9b 01       	movw	r18, r22
    5012:	ac 01       	movw	r20, r24
    5014:	7f b7       	in	r23, 0x3f	; 63
    5016:	f8 94       	cli
    5018:	80 91 5f 07 	lds	r24, 0x075F
    501c:	90 91 60 07 	lds	r25, 0x0760
    5020:	a0 91 61 07 	lds	r26, 0x0761
    5024:	b0 91 62 07 	lds	r27, 0x0762
    5028:	66 b5       	in	r22, 0x26	; 38
    502a:	a8 9b       	sbis	0x15, 0	; 21
    502c:	05 c0       	rjmp	.+10     	;  0x5038
    502e:	6f 3f       	cpi	r22, 0xFF	; 255
    5030:	19 f0       	breq	.+6      	;  0x5038
    5032:	01 96       	adiw	r24, 0x01	; 1
    5034:	a1 1d       	adc	r26, r1
    5036:	b1 1d       	adc	r27, r1
    5038:	7f bf       	out	0x3f, r23	; 63
    503a:	ba 2f       	mov	r27, r26
    503c:	a9 2f       	mov	r26, r25
    503e:	98 2f       	mov	r25, r24
    5040:	88 27       	eor	r24, r24
    5042:	86 0f       	add	r24, r22
    5044:	91 1d       	adc	r25, r1
    5046:	a1 1d       	adc	r26, r1
    5048:	b1 1d       	adc	r27, r1
    504a:	62 e0       	ldi	r22, 0x02	; 2
    504c:	88 0f       	add	r24, r24
    504e:	99 1f       	adc	r25, r25
    5050:	aa 1f       	adc	r26, r26
    5052:	bb 1f       	adc	r27, r27
    5054:	6a 95       	dec	r22
    5056:	d1 f7       	brne	.-12     	;  0x504c
    5058:	bc 01       	movw	r22, r24
    505a:	2d c0       	rjmp	.+90     	;  0x50b6
    505c:	ff b7       	in	r31, 0x3f	; 63
    505e:	f8 94       	cli
    5060:	80 91 5f 07 	lds	r24, 0x075F
    5064:	90 91 60 07 	lds	r25, 0x0760
    5068:	a0 91 61 07 	lds	r26, 0x0761
    506c:	b0 91 62 07 	lds	r27, 0x0762
    5070:	e6 b5       	in	r30, 0x26	; 38
    5072:	a8 9b       	sbis	0x15, 0	; 21
    5074:	05 c0       	rjmp	.+10     	;  0x5080
    5076:	ef 3f       	cpi	r30, 0xFF	; 255
    5078:	19 f0       	breq	.+6      	;  0x5080
    507a:	01 96       	adiw	r24, 0x01	; 1
    507c:	a1 1d       	adc	r26, r1
    507e:	b1 1d       	adc	r27, r1
    5080:	ff bf       	out	0x3f, r31	; 63
    5082:	ba 2f       	mov	r27, r26
    5084:	a9 2f       	mov	r26, r25
    5086:	98 2f       	mov	r25, r24
    5088:	88 27       	eor	r24, r24
    508a:	8e 0f       	add	r24, r30
    508c:	91 1d       	adc	r25, r1
    508e:	a1 1d       	adc	r26, r1
    5090:	b1 1d       	adc	r27, r1
    5092:	e2 e0       	ldi	r30, 0x02	; 2
    5094:	88 0f       	add	r24, r24
    5096:	99 1f       	adc	r25, r25
    5098:	aa 1f       	adc	r26, r26
    509a:	bb 1f       	adc	r27, r27
    509c:	ea 95       	dec	r30
    509e:	d1 f7       	brne	.-12     	;  0x5094
    50a0:	86 1b       	sub	r24, r22
    50a2:	97 0b       	sbc	r25, r23
    50a4:	88 5e       	subi	r24, 0xE8	; 232
    50a6:	93 40       	sbci	r25, 0x03	; 3
    50a8:	c8 f2       	brcs	.-78     	;  0x505c
    50aa:	21 50       	subi	r18, 0x01	; 1
    50ac:	30 40       	sbci	r19, 0x00	; 0
    50ae:	40 40       	sbci	r20, 0x00	; 0
    50b0:	50 40       	sbci	r21, 0x00	; 0
    50b2:	68 51       	subi	r22, 0x18	; 24
    50b4:	7c 4f       	sbci	r23, 0xFC	; 252
    50b6:	21 15       	cp	r18, r1
    50b8:	31 05       	cpc	r19, r1
    50ba:	41 05       	cpc	r20, r1
    50bc:	51 05       	cpc	r21, r1
    50be:	71 f6       	brne	.-100    	;  0x505c
    50c0:	08 95       	ret
    50c2:	01 97       	sbiw	r24, 0x01	; 1
    50c4:	39 f0       	breq	.+14     	;  0x50d4
    50c6:	88 0f       	add	r24, r24
    50c8:	99 1f       	adc	r25, r25
    50ca:	88 0f       	add	r24, r24
    50cc:	99 1f       	adc	r25, r25
    50ce:	02 97       	sbiw	r24, 0x02	; 2
    50d0:	01 97       	sbiw	r24, 0x01	; 1
    50d2:	f1 f7       	brne	.-4      	;  0x50d0
    50d4:	08 95       	ret
    50d6:	78 94       	sei
    50d8:	84 b5       	in	r24, 0x24	; 36
    50da:	82 60       	ori	r24, 0x02	; 2
    50dc:	84 bd       	out	0x24, r24	; 36
    50de:	84 b5       	in	r24, 0x24	; 36
    50e0:	81 60       	ori	r24, 0x01	; 1
    50e2:	84 bd       	out	0x24, r24	; 36
    50e4:	85 b5       	in	r24, 0x25	; 37
    50e6:	82 60       	ori	r24, 0x02	; 2
    50e8:	85 bd       	out	0x25, r24	; 37
    50ea:	85 b5       	in	r24, 0x25	; 37
    50ec:	81 60       	ori	r24, 0x01	; 1
    50ee:	85 bd       	out	0x25, r24	; 37
    50f0:	ee e6       	ldi	r30, 0x6E	; 110
    50f2:	f0 e0       	ldi	r31, 0x00	; 0
    50f4:	80 81       	ld	r24, Z
    50f6:	81 60       	ori	r24, 0x01	; 1
    50f8:	80 83       	st	Z, r24
    50fa:	e1 e8       	ldi	r30, 0x81	; 129
    50fc:	f0 e0       	ldi	r31, 0x00	; 0
    50fe:	10 82       	st	Z, r1
    5100:	80 81       	ld	r24, Z
    5102:	82 60       	ori	r24, 0x02	; 2
    5104:	80 83       	st	Z, r24
    5106:	80 81       	ld	r24, Z
    5108:	81 60       	ori	r24, 0x01	; 1
    510a:	80 83       	st	Z, r24
    510c:	e0 e8       	ldi	r30, 0x80	; 128
    510e:	f0 e0       	ldi	r31, 0x00	; 0
    5110:	80 81       	ld	r24, Z
    5112:	81 60       	ori	r24, 0x01	; 1
    5114:	80 83       	st	Z, r24
    5116:	e1 eb       	ldi	r30, 0xB1	; 177
    5118:	f0 e0       	ldi	r31, 0x00	; 0
    511a:	80 81       	ld	r24, Z
    511c:	84 60       	ori	r24, 0x04	; 4
    511e:	80 83       	st	Z, r24
    5120:	e0 eb       	ldi	r30, 0xB0	; 176
    5122:	f0 e0       	ldi	r31, 0x00	; 0
    5124:	80 81       	ld	r24, Z
    5126:	81 60       	ori	r24, 0x01	; 1
    5128:	80 83       	st	Z, r24
    512a:	ea e7       	ldi	r30, 0x7A	; 122
    512c:	f0 e0       	ldi	r31, 0x00	; 0
    512e:	80 81       	ld	r24, Z
    5130:	84 60       	ori	r24, 0x04	; 4
    5132:	80 83       	st	Z, r24
    5134:	80 81       	ld	r24, Z
    5136:	82 60       	ori	r24, 0x02	; 2
    5138:	80 83       	st	Z, r24
    513a:	80 81       	ld	r24, Z
    513c:	81 60       	ori	r24, 0x01	; 1
    513e:	80 83       	st	Z, r24
    5140:	80 81       	ld	r24, Z
    5142:	80 68       	ori	r24, 0x80	; 128
    5144:	80 83       	st	Z, r24
    5146:	10 92 c1 00 	sts	0x00C1, r1
    514a:	08 95       	ret
    514c:	cf 93       	push	r28
    514e:	df 93       	push	r29
    5150:	48 2f       	mov	r20, r24
    5152:	50 e0       	ldi	r21, 0x00	; 0
    5154:	ca 01       	movw	r24, r20
    5156:	81 51       	subi	r24, 0x11	; 17
    5158:	9f 4f       	sbci	r25, 0xFF	; 255
    515a:	fc 01       	movw	r30, r24
    515c:	34 91       	lpm	r19, Z+
    515e:	45 52       	subi	r20, 0x25	; 37
    5160:	5f 4f       	sbci	r21, 0xFF	; 255
    5162:	fa 01       	movw	r30, r20
    5164:	84 91       	lpm	r24, Z+
    5166:	88 23       	and	r24, r24
    5168:	69 f1       	breq	.+90     	;  0x51c4
    516a:	90 e0       	ldi	r25, 0x00	; 0
    516c:	88 0f       	add	r24, r24
    516e:	99 1f       	adc	r25, r25
    5170:	fc 01       	movw	r30, r24
    5172:	e3 54       	subi	r30, 0x43	; 67
    5174:	ff 4f       	sbci	r31, 0xFF	; 255
    5176:	a5 91       	lpm	r26, Z+
    5178:	b4 91       	lpm	r27, Z+
    517a:	fc 01       	movw	r30, r24
    517c:	e9 53       	subi	r30, 0x39	; 57
    517e:	ff 4f       	sbci	r31, 0xFF	; 255
    5180:	c5 91       	lpm	r28, Z+
    5182:	d4 91       	lpm	r29, Z+
    5184:	66 23       	and	r22, r22
    5186:	51 f4       	brne	.+20     	;  0x519c
    5188:	2f b7       	in	r18, 0x3f	; 63
    518a:	f8 94       	cli
    518c:	8c 91       	ld	r24, X
    518e:	93 2f       	mov	r25, r19
    5190:	90 95       	com	r25
    5192:	89 23       	and	r24, r25
    5194:	8c 93       	st	X, r24
    5196:	88 81       	ld	r24, Y
    5198:	89 23       	and	r24, r25
    519a:	0b c0       	rjmp	.+22     	;  0x51b2
    519c:	62 30       	cpi	r22, 0x02	; 2
    519e:	61 f4       	brne	.+24     	;  0x51b8
    51a0:	2f b7       	in	r18, 0x3f	; 63
    51a2:	f8 94       	cli
    51a4:	8c 91       	ld	r24, X
    51a6:	93 2f       	mov	r25, r19
    51a8:	90 95       	com	r25
    51aa:	89 23       	and	r24, r25
    51ac:	8c 93       	st	X, r24
    51ae:	88 81       	ld	r24, Y
    51b0:	83 2b       	or	r24, r19
    51b2:	88 83       	st	Y, r24
    51b4:	2f bf       	out	0x3f, r18	; 63
    51b6:	06 c0       	rjmp	.+12     	;  0x51c4
    51b8:	9f b7       	in	r25, 0x3f	; 63
    51ba:	f8 94       	cli
    51bc:	8c 91       	ld	r24, X
    51be:	83 2b       	or	r24, r19
    51c0:	8c 93       	st	X, r24
    51c2:	9f bf       	out	0x3f, r25	; 63
    51c4:	df 91       	pop	r29
    51c6:	cf 91       	pop	r28
    51c8:	08 95       	ret
    51ca:	48 2f       	mov	r20, r24
    51cc:	50 e0       	ldi	r21, 0x00	; 0
    51ce:	ca 01       	movw	r24, r20
    51d0:	8d 5f       	subi	r24, 0xFD	; 253
    51d2:	9e 4f       	sbci	r25, 0xFE	; 254
    51d4:	fc 01       	movw	r30, r24
    51d6:	24 91       	lpm	r18, Z+
    51d8:	ca 01       	movw	r24, r20
    51da:	81 51       	subi	r24, 0x11	; 17
    51dc:	9f 4f       	sbci	r25, 0xFF	; 255
    51de:	fc 01       	movw	r30, r24
    51e0:	94 91       	lpm	r25, Z+
    51e2:	45 52       	subi	r20, 0x25	; 37
    51e4:	5f 4f       	sbci	r21, 0xFF	; 255
    51e6:	fa 01       	movw	r30, r20
    51e8:	34 91       	lpm	r19, Z+
    51ea:	33 23       	and	r19, r19
    51ec:	09 f4       	brne	.+2      	;  0x51f0
    51ee:	40 c0       	rjmp	.+128    	;  0x5270
    51f0:	22 23       	and	r18, r18
    51f2:	51 f1       	breq	.+84     	;  0x5248
    51f4:	23 30       	cpi	r18, 0x03	; 3
    51f6:	71 f0       	breq	.+28     	;  0x5214
    51f8:	24 30       	cpi	r18, 0x04	; 4
    51fa:	28 f4       	brcc	.+10     	;  0x5206
    51fc:	21 30       	cpi	r18, 0x01	; 1
    51fe:	a1 f0       	breq	.+40     	;  0x5228
    5200:	22 30       	cpi	r18, 0x02	; 2
    5202:	11 f5       	brne	.+68     	;  0x5248
    5204:	14 c0       	rjmp	.+40     	;  0x522e
    5206:	26 30       	cpi	r18, 0x06	; 6
    5208:	b1 f0       	breq	.+44     	;  0x5236
    520a:	27 30       	cpi	r18, 0x07	; 7
    520c:	c1 f0       	breq	.+48     	;  0x523e
    520e:	24 30       	cpi	r18, 0x04	; 4
    5210:	d9 f4       	brne	.+54     	;  0x5248
    5212:	04 c0       	rjmp	.+8      	;  0x521c
    5214:	80 91 80 00 	lds	r24, 0x0080
    5218:	8f 77       	andi	r24, 0x7F	; 127
    521a:	03 c0       	rjmp	.+6      	;  0x5222
    521c:	80 91 80 00 	lds	r24, 0x0080
    5220:	8f 7d       	andi	r24, 0xDF	; 223
    5222:	80 93 80 00 	sts	0x0080, r24
    5226:	10 c0       	rjmp	.+32     	;  0x5248
    5228:	84 b5       	in	r24, 0x24	; 36
    522a:	8f 77       	andi	r24, 0x7F	; 127
    522c:	02 c0       	rjmp	.+4      	;  0x5232
    522e:	84 b5       	in	r24, 0x24	; 36
    5230:	8f 7d       	andi	r24, 0xDF	; 223
    5232:	84 bd       	out	0x24, r24	; 36
    5234:	09 c0       	rjmp	.+18     	;  0x5248
    5236:	80 91 b0 00 	lds	r24, 0x00B0
    523a:	8f 77       	andi	r24, 0x7F	; 127
    523c:	03 c0       	rjmp	.+6      	;  0x5244
    523e:	80 91 b0 00 	lds	r24, 0x00B0
    5242:	8f 7d       	andi	r24, 0xDF	; 223
    5244:	80 93 b0 00 	sts	0x00B0, r24
    5248:	e3 2f       	mov	r30, r19
    524a:	f0 e0       	ldi	r31, 0x00	; 0
    524c:	ee 0f       	add	r30, r30
    524e:	ff 1f       	adc	r31, r31
    5250:	e9 53       	subi	r30, 0x39	; 57
    5252:	ff 4f       	sbci	r31, 0xFF	; 255
    5254:	a5 91       	lpm	r26, Z+
    5256:	b4 91       	lpm	r27, Z+
    5258:	2f b7       	in	r18, 0x3f	; 63
    525a:	f8 94       	cli
    525c:	66 23       	and	r22, r22
    525e:	21 f4       	brne	.+8      	;  0x5268
    5260:	8c 91       	ld	r24, X
    5262:	90 95       	com	r25
    5264:	89 23       	and	r24, r25
    5266:	02 c0       	rjmp	.+4      	;  0x526c
    5268:	8c 91       	ld	r24, X
    526a:	89 2b       	or	r24, r25
    526c:	8c 93       	st	X, r24
    526e:	2f bf       	out	0x3f, r18	; 63
    5270:	08 95       	ret
    5272:	0f 93       	push	r16
    5274:	1f 93       	push	r17
    5276:	cf 93       	push	r28
    5278:	df 93       	push	r29
    527a:	bc 01       	movw	r22, r24
    527c:	82 30       	cpi	r24, 0x02	; 2
    527e:	91 05       	cpc	r25, r1
    5280:	10 f4       	brcc	.+4      	;  0x5286
    5282:	62 e0       	ldi	r22, 0x02	; 2
    5284:	70 e0       	ldi	r23, 0x00	; 0
    5286:	e0 91 6a 07 	lds	r30, 0x076A
    528a:	f0 91 6b 07 	lds	r31, 0x076B
    528e:	40 e0       	ldi	r20, 0x00	; 0
    5290:	50 e0       	ldi	r21, 0x00	; 0
    5292:	a0 e0       	ldi	r26, 0x00	; 0
    5294:	b0 e0       	ldi	r27, 0x00	; 0
    5296:	24 c0       	rjmp	.+72     	;  0x52e0
    5298:	80 81       	ld	r24, Z
    529a:	91 81       	ldd	r25, Z+1	; 0x01
    529c:	86 17       	cp	r24, r22
    529e:	97 07       	cpc	r25, r23
    52a0:	d0 f0       	brcs	.+52     	;  0x52d6
    52a2:	86 17       	cp	r24, r22
    52a4:	97 07       	cpc	r25, r23
    52a6:	71 f4       	brne	.+28     	;  0x52c4
    52a8:	82 81       	ldd	r24, Z+2	; 0x02
    52aa:	93 81       	ldd	r25, Z+3	; 0x03
    52ac:	10 97       	sbiw	r26, 0x00	; 0
    52ae:	29 f0       	breq	.+10     	;  0x52ba
    52b0:	13 96       	adiw	r26, 0x03	; 3
    52b2:	9c 93       	st	X, r25
    52b4:	8e 93       	st	-X, r24
    52b6:	12 97       	sbiw	r26, 0x02	; 2
    52b8:	2c c0       	rjmp	.+88     	;  0x5312
    52ba:	90 93 6b 07 	sts	0x076B, r25
    52be:	80 93 6a 07 	sts	0x076A, r24
    52c2:	27 c0       	rjmp	.+78     	;  0x5312
    52c4:	41 15       	cp	r20, r1
    52c6:	51 05       	cpc	r21, r1
    52c8:	19 f0       	breq	.+6      	;  0x52d0
    52ca:	84 17       	cp	r24, r20
    52cc:	95 07       	cpc	r25, r21
    52ce:	18 f4       	brcc	.+6      	;  0x52d6
    52d0:	8d 01       	movw	r16, r26
    52d2:	ac 01       	movw	r20, r24
    52d4:	ef 01       	movw	r28, r30
    52d6:	df 01       	movw	r26, r30
    52d8:	82 81       	ldd	r24, Z+2	; 0x02
    52da:	93 81       	ldd	r25, Z+3	; 0x03
    52dc:	9c 01       	movw	r18, r24
    52de:	f9 01       	movw	r30, r18
    52e0:	30 97       	sbiw	r30, 0x00	; 0
    52e2:	d1 f6       	brne	.-76     	;  0x5298
    52e4:	41 15       	cp	r20, r1
    52e6:	51 05       	cpc	r21, r1
    52e8:	f9 f0       	breq	.+62     	;  0x5328
    52ea:	ca 01       	movw	r24, r20
    52ec:	86 1b       	sub	r24, r22
    52ee:	97 0b       	sbc	r25, r23
    52f0:	84 30       	cpi	r24, 0x04	; 4
    52f2:	91 05       	cpc	r25, r1
    52f4:	80 f4       	brcc	.+32     	;  0x5316
    52f6:	8a 81       	ldd	r24, Y+2	; 0x02
    52f8:	9b 81       	ldd	r25, Y+3	; 0x03
    52fa:	01 15       	cp	r16, r1
    52fc:	11 05       	cpc	r17, r1
    52fe:	21 f0       	breq	.+8      	;  0x5308
    5300:	f8 01       	movw	r30, r16
    5302:	93 83       	std	Z+3, r25	; 0x03
    5304:	82 83       	std	Z+2, r24	; 0x02
    5306:	04 c0       	rjmp	.+8      	;  0x5310
    5308:	90 93 6b 07 	sts	0x076B, r25
    530c:	80 93 6a 07 	sts	0x076A, r24
    5310:	fe 01       	movw	r30, r28
    5312:	32 96       	adiw	r30, 0x02	; 2
    5314:	45 c0       	rjmp	.+138    	;  0x53a0
    5316:	fe 01       	movw	r30, r28
    5318:	e8 0f       	add	r30, r24
    531a:	f9 1f       	adc	r31, r25
    531c:	61 93       	st	Z+, r22
    531e:	71 93       	st	Z+, r23
    5320:	02 97       	sbiw	r24, 0x02	; 2
    5322:	99 83       	std	Y+1, r25	; 0x01
    5324:	88 83       	st	Y, r24
    5326:	3c c0       	rjmp	.+120    	;  0x53a0
    5328:	80 91 68 07 	lds	r24, 0x0768
    532c:	90 91 69 07 	lds	r25, 0x0769
    5330:	89 2b       	or	r24, r25
    5332:	41 f4       	brne	.+16     	;  0x5344
    5334:	80 91 ca 02 	lds	r24, 0x02CA
    5338:	90 91 cb 02 	lds	r25, 0x02CB
    533c:	90 93 69 07 	sts	0x0769, r25
    5340:	80 93 68 07 	sts	0x0768, r24
    5344:	40 91 cc 02 	lds	r20, 0x02CC
    5348:	50 91 cd 02 	lds	r21, 0x02CD
    534c:	41 15       	cp	r20, r1
    534e:	51 05       	cpc	r21, r1
    5350:	41 f4       	brne	.+16     	;  0x5362
    5352:	4d b7       	in	r20, 0x3d	; 61
    5354:	5e b7       	in	r21, 0x3e	; 62
    5356:	80 91 c8 02 	lds	r24, 0x02C8
    535a:	90 91 c9 02 	lds	r25, 0x02C9
    535e:	48 1b       	sub	r20, r24
    5360:	59 0b       	sbc	r21, r25
    5362:	20 91 68 07 	lds	r18, 0x0768
    5366:	30 91 69 07 	lds	r19, 0x0769
    536a:	24 17       	cp	r18, r20
    536c:	35 07       	cpc	r19, r21
    536e:	b0 f4       	brcc	.+44     	;  0x539c
    5370:	ca 01       	movw	r24, r20
    5372:	82 1b       	sub	r24, r18
    5374:	93 0b       	sbc	r25, r19
    5376:	86 17       	cp	r24, r22
    5378:	97 07       	cpc	r25, r23
    537a:	80 f0       	brcs	.+32     	;  0x539c
    537c:	ab 01       	movw	r20, r22
    537e:	4e 5f       	subi	r20, 0xFE	; 254
    5380:	5f 4f       	sbci	r21, 0xFF	; 255
    5382:	84 17       	cp	r24, r20
    5384:	95 07       	cpc	r25, r21
    5386:	50 f0       	brcs	.+20     	;  0x539c
    5388:	42 0f       	add	r20, r18
    538a:	53 1f       	adc	r21, r19
    538c:	50 93 69 07 	sts	0x0769, r21
    5390:	40 93 68 07 	sts	0x0768, r20
    5394:	f9 01       	movw	r30, r18
    5396:	61 93       	st	Z+, r22
    5398:	71 93       	st	Z+, r23
    539a:	02 c0       	rjmp	.+4      	;  0x53a0
    539c:	e0 e0       	ldi	r30, 0x00	; 0
    539e:	f0 e0       	ldi	r31, 0x00	; 0
    53a0:	cf 01       	movw	r24, r30
    53a2:	df 91       	pop	r29
    53a4:	cf 91       	pop	r28
    53a6:	1f 91       	pop	r17
    53a8:	0f 91       	pop	r16
    53aa:	08 95       	ret
    53ac:	cf 93       	push	r28
    53ae:	df 93       	push	r29
    53b0:	9c 01       	movw	r18, r24
    53b2:	00 97       	sbiw	r24, 0x00	; 0
    53b4:	09 f4       	brne	.+2      	;  0x53b8
    53b6:	8f c0       	rjmp	.+286    	;  0x54d6
    53b8:	ec 01       	movw	r28, r24
    53ba:	22 97       	sbiw	r28, 0x02	; 2
    53bc:	1b 82       	std	Y+3, r1	; 0x03
    53be:	1a 82       	std	Y+2, r1	; 0x02
    53c0:	60 91 6a 07 	lds	r22, 0x076A
    53c4:	70 91 6b 07 	lds	r23, 0x076B
    53c8:	61 15       	cp	r22, r1
    53ca:	71 05       	cpc	r23, r1
    53cc:	81 f4       	brne	.+32     	;  0x53ee
    53ce:	88 81       	ld	r24, Y
    53d0:	99 81       	ldd	r25, Y+1	; 0x01
    53d2:	82 0f       	add	r24, r18
    53d4:	93 1f       	adc	r25, r19
    53d6:	20 91 68 07 	lds	r18, 0x0768
    53da:	30 91 69 07 	lds	r19, 0x0769
    53de:	28 17       	cp	r18, r24
    53e0:	39 07       	cpc	r19, r25
    53e2:	39 f5       	brne	.+78     	;  0x5432
    53e4:	d0 93 69 07 	sts	0x0769, r29
    53e8:	c0 93 68 07 	sts	0x0768, r28
    53ec:	74 c0       	rjmp	.+232    	;  0x54d6
    53ee:	db 01       	movw	r26, r22
    53f0:	40 e0       	ldi	r20, 0x00	; 0
    53f2:	50 e0       	ldi	r21, 0x00	; 0
    53f4:	ac 17       	cp	r26, r28
    53f6:	bd 07       	cpc	r27, r29
    53f8:	08 f1       	brcs	.+66     	;  0x543c
    53fa:	bb 83       	std	Y+3, r27	; 0x03
    53fc:	aa 83       	std	Y+2, r26	; 0x02
    53fe:	fe 01       	movw	r30, r28
    5400:	21 91       	ld	r18, Z+
    5402:	31 91       	ld	r19, Z+
    5404:	e2 0f       	add	r30, r18
    5406:	f3 1f       	adc	r31, r19
    5408:	ae 17       	cp	r26, r30
    540a:	bf 07       	cpc	r27, r31
    540c:	79 f4       	brne	.+30     	;  0x542c
    540e:	8d 91       	ld	r24, X+
    5410:	9c 91       	ld	r25, X
    5412:	11 97       	sbiw	r26, 0x01	; 1
    5414:	28 0f       	add	r18, r24
    5416:	39 1f       	adc	r19, r25
    5418:	2e 5f       	subi	r18, 0xFE	; 254
    541a:	3f 4f       	sbci	r19, 0xFF	; 255
    541c:	39 83       	std	Y+1, r19	; 0x01
    541e:	28 83       	st	Y, r18
    5420:	12 96       	adiw	r26, 0x02	; 2
    5422:	8d 91       	ld	r24, X+
    5424:	9c 91       	ld	r25, X
    5426:	13 97       	sbiw	r26, 0x03	; 3
    5428:	9b 83       	std	Y+3, r25	; 0x03
    542a:	8a 83       	std	Y+2, r24	; 0x02
    542c:	41 15       	cp	r20, r1
    542e:	51 05       	cpc	r21, r1
    5430:	71 f4       	brne	.+28     	;  0x544e
    5432:	d0 93 6b 07 	sts	0x076B, r29
    5436:	c0 93 6a 07 	sts	0x076A, r28
    543a:	4d c0       	rjmp	.+154    	;  0x54d6
    543c:	12 96       	adiw	r26, 0x02	; 2
    543e:	8d 91       	ld	r24, X+
    5440:	9c 91       	ld	r25, X
    5442:	13 97       	sbiw	r26, 0x03	; 3
    5444:	ad 01       	movw	r20, r26
    5446:	00 97       	sbiw	r24, 0x00	; 0
    5448:	11 f0       	breq	.+4      	;  0x544e
    544a:	dc 01       	movw	r26, r24
    544c:	d3 cf       	rjmp	.-90     	;  0x53f4
    544e:	da 01       	movw	r26, r20
    5450:	13 96       	adiw	r26, 0x03	; 3
    5452:	dc 93       	st	X, r29
    5454:	ce 93       	st	-X, r28
    5456:	12 97       	sbiw	r26, 0x02	; 2
    5458:	fa 01       	movw	r30, r20
    545a:	21 91       	ld	r18, Z+
    545c:	31 91       	ld	r19, Z+
    545e:	e2 0f       	add	r30, r18
    5460:	f3 1f       	adc	r31, r19
    5462:	ce 17       	cp	r28, r30
    5464:	df 07       	cpc	r29, r31
    5466:	69 f4       	brne	.+26     	;  0x5482
    5468:	88 81       	ld	r24, Y
    546a:	99 81       	ldd	r25, Y+1	; 0x01
    546c:	28 0f       	add	r18, r24
    546e:	39 1f       	adc	r19, r25
    5470:	2e 5f       	subi	r18, 0xFE	; 254
    5472:	3f 4f       	sbci	r19, 0xFF	; 255
    5474:	fa 01       	movw	r30, r20
    5476:	31 83       	std	Z+1, r19	; 0x01
    5478:	20 83       	st	Z, r18
    547a:	8a 81       	ldd	r24, Y+2	; 0x02
    547c:	9b 81       	ldd	r25, Y+3	; 0x03
    547e:	93 83       	std	Z+3, r25	; 0x03
    5480:	82 83       	std	Z+2, r24	; 0x02
    5482:	e0 e0       	ldi	r30, 0x00	; 0
    5484:	f0 e0       	ldi	r31, 0x00	; 0
    5486:	db 01       	movw	r26, r22
    5488:	12 96       	adiw	r26, 0x02	; 2
    548a:	8d 91       	ld	r24, X+
    548c:	9c 91       	ld	r25, X
    548e:	13 97       	sbiw	r26, 0x03	; 3
    5490:	00 97       	sbiw	r24, 0x00	; 0
    5492:	19 f0       	breq	.+6      	;  0x549a
    5494:	bc 01       	movw	r22, r24
    5496:	fd 01       	movw	r30, r26
    5498:	f6 cf       	rjmp	.-20     	;  0x5486
    549a:	ab 01       	movw	r20, r22
    549c:	4e 5f       	subi	r20, 0xFE	; 254
    549e:	5f 4f       	sbci	r21, 0xFF	; 255
    54a0:	db 01       	movw	r26, r22
    54a2:	8d 91       	ld	r24, X+
    54a4:	9c 91       	ld	r25, X
    54a6:	84 0f       	add	r24, r20
    54a8:	95 1f       	adc	r25, r21
    54aa:	20 91 68 07 	lds	r18, 0x0768
    54ae:	30 91 69 07 	lds	r19, 0x0769
    54b2:	28 17       	cp	r18, r24
    54b4:	39 07       	cpc	r19, r25
    54b6:	79 f4       	brne	.+30     	;  0x54d6
    54b8:	30 97       	sbiw	r30, 0x00	; 0
    54ba:	29 f4       	brne	.+10     	;  0x54c6
    54bc:	10 92 6b 07 	sts	0x076B, r1
    54c0:	10 92 6a 07 	sts	0x076A, r1
    54c4:	02 c0       	rjmp	.+4      	;  0x54ca
    54c6:	13 82       	std	Z+3, r1	; 0x03
    54c8:	12 82       	std	Z+2, r1	; 0x02
    54ca:	42 50       	subi	r20, 0x02	; 2
    54cc:	50 40       	sbci	r21, 0x00	; 0
    54ce:	50 93 69 07 	sts	0x0769, r21
    54d2:	40 93 68 07 	sts	0x0768, r20
    54d6:	df 91       	pop	r29
    54d8:	cf 91       	pop	r28
    54da:	08 95       	ret
    54dc:	50 58       	subi	r21, 0x80	; 128
    54de:	bb 27       	eor	r27, r27
    54e0:	aa 27       	eor	r26, r26
    54e2:	0e d0       	rcall	.+28     	;  0x5500
    54e4:	41 c2       	rjmp	.+1154   	;  0x5968
    54e6:	01 d2       	rcall	.+1026   	;  0x58ea
    54e8:	30 f0       	brcs	.+12     	;  0x54f6
    54ea:	06 d2       	rcall	.+1036   	;  0x58f8
    54ec:	20 f0       	brcs	.+8      	;  0x54f6
    54ee:	31 f4       	brne	.+12     	;  0x54fc
    54f0:	9f 3f       	cpi	r25, 0xFF	; 255
    54f2:	11 f4       	brne	.+4      	;  0x54f8
    54f4:	1e f4       	brtc	.+6      	;  0x54fc
    54f6:	c0 c1       	rjmp	.+896    	;  0x5878
    54f8:	0e f4       	brtc	.+2      	;  0x54fc
    54fa:	e0 95       	com	r30
    54fc:	e7 fb       	bst	r30, 7
    54fe:	b6 c1       	rjmp	.+876    	;  0x586c
    5500:	e9 2f       	mov	r30, r25
    5502:	54 d2       	rcall	.+1192   	;  0x59ac
    5504:	80 f3       	brcs	.-32     	;  0x54e6
    5506:	ba 17       	cp	r27, r26
    5508:	62 07       	cpc	r22, r18
    550a:	73 07       	cpc	r23, r19
    550c:	84 07       	cpc	r24, r20
    550e:	95 07       	cpc	r25, r21
    5510:	18 f0       	brcs	.+6      	;  0x5518
    5512:	71 f4       	brne	.+28     	;  0x5530
    5514:	9e f5       	brtc	.+102    	;  0x557c
    5516:	6c c2       	rjmp	.+1240   	;  0x59f0
    5518:	0e f4       	brtc	.+2      	;  0x551c
    551a:	e0 95       	com	r30
    551c:	0b 2e       	mov	r0, r27
    551e:	ba 2f       	mov	r27, r26
    5520:	a0 2d       	mov	r26, r0
    5522:	0b 01       	movw	r0, r22
    5524:	b9 01       	movw	r22, r18
    5526:	90 01       	movw	r18, r0
    5528:	0c 01       	movw	r0, r24
    552a:	ca 01       	movw	r24, r20
    552c:	a0 01       	movw	r20, r0
    552e:	11 24       	eor	r1, r1
    5530:	ff 27       	eor	r31, r31
    5532:	59 1b       	sub	r21, r25
    5534:	99 f0       	breq	.+38     	;  0x555c
    5536:	59 3f       	cpi	r21, 0xF9	; 249
    5538:	50 f4       	brcc	.+20     	;  0x554e
    553a:	50 3e       	cpi	r21, 0xE0	; 224
    553c:	68 f1       	brcs	.+90     	;  0x5598
    553e:	1a 16       	cp	r1, r26
    5540:	f0 40       	sbci	r31, 0x00	; 0
    5542:	a2 2f       	mov	r26, r18
    5544:	23 2f       	mov	r18, r19
    5546:	34 2f       	mov	r19, r20
    5548:	44 27       	eor	r20, r20
    554a:	58 5f       	subi	r21, 0xF8	; 248
    554c:	f3 cf       	rjmp	.-26     	;  0x5534
    554e:	46 95       	lsr	r20
    5550:	37 95       	ror	r19
    5552:	27 95       	ror	r18
    5554:	a7 95       	ror	r26
    5556:	f0 40       	sbci	r31, 0x00	; 0
    5558:	53 95       	inc	r21
    555a:	c9 f7       	brne	.-14     	;  0x554e
    555c:	7e f4       	brtc	.+30     	;  0x557c
    555e:	1f 16       	cp	r1, r31
    5560:	ba 0b       	sbc	r27, r26
    5562:	62 0b       	sbc	r22, r18
    5564:	73 0b       	sbc	r23, r19
    5566:	84 0b       	sbc	r24, r20
    5568:	ba f0       	brmi	.+46     	;  0x5598
    556a:	91 50       	subi	r25, 0x01	; 1
    556c:	a1 f0       	breq	.+40     	;  0x5596
    556e:	ff 0f       	add	r31, r31
    5570:	bb 1f       	adc	r27, r27
    5572:	66 1f       	adc	r22, r22
    5574:	77 1f       	adc	r23, r23
    5576:	88 1f       	adc	r24, r24
    5578:	c2 f7       	brpl	.-16     	;  0x556a
    557a:	0e c0       	rjmp	.+28     	;  0x5598
    557c:	ba 0f       	add	r27, r26
    557e:	62 1f       	adc	r22, r18
    5580:	73 1f       	adc	r23, r19
    5582:	84 1f       	adc	r24, r20
    5584:	48 f4       	brcc	.+18     	;  0x5598
    5586:	87 95       	ror	r24
    5588:	77 95       	ror	r23
    558a:	67 95       	ror	r22
    558c:	b7 95       	ror	r27
    558e:	f7 95       	ror	r31
    5590:	9e 3f       	cpi	r25, 0xFE	; 254
    5592:	08 f0       	brcs	.+2      	;  0x5596
    5594:	b3 cf       	rjmp	.-154    	;  0x54fc
    5596:	93 95       	inc	r25
    5598:	88 0f       	add	r24, r24
    559a:	08 f0       	brcs	.+2      	;  0x559e
    559c:	99 27       	eor	r25, r25
    559e:	ee 0f       	add	r30, r30
    55a0:	97 95       	ror	r25
    55a2:	87 95       	ror	r24
    55a4:	08 95       	ret
    55a6:	a1 d1       	rcall	.+834    	;  0x58ea
    55a8:	58 f0       	brcs	.+22     	;  0x55c0
    55aa:	80 e8       	ldi	r24, 0x80	; 128
    55ac:	91 e0       	ldi	r25, 0x01	; 1
    55ae:	09 f4       	brne	.+2      	;  0x55b2
    55b0:	9e ef       	ldi	r25, 0xFE	; 254
    55b2:	a2 d1       	rcall	.+836    	;  0x58f8
    55b4:	28 f0       	brcs	.+10     	;  0x55c0
    55b6:	40 e8       	ldi	r20, 0x80	; 128
    55b8:	51 e0       	ldi	r21, 0x01	; 1
    55ba:	59 f4       	brne	.+22     	;  0x55d2
    55bc:	5e ef       	ldi	r21, 0xFE	; 254
    55be:	09 c0       	rjmp	.+18     	;  0x55d2
    55c0:	5b c1       	rjmp	.+694    	;  0x5878
    55c2:	16 c2       	rjmp	.+1068   	;  0x59f0
    55c4:	e9 2f       	mov	r30, r25
    55c6:	e0 78       	andi	r30, 0x80	; 128
    55c8:	f1 d1       	rcall	.+994    	;  0x59ac
    55ca:	68 f3       	brcs	.-38     	;  0x55a6
    55cc:	09 2e       	mov	r0, r25
    55ce:	05 2a       	or	r0, r21
    55d0:	c1 f3       	breq	.-16     	;  0x55c2
    55d2:	26 17       	cp	r18, r22
    55d4:	37 07       	cpc	r19, r23
    55d6:	48 07       	cpc	r20, r24
    55d8:	59 07       	cpc	r21, r25
    55da:	38 f0       	brcs	.+14     	;  0x55ea
    55dc:	0e 2e       	mov	r0, r30
    55de:	07 f8       	bld	r0, 7
    55e0:	e0 25       	eor	r30, r0
    55e2:	69 f0       	breq	.+26     	;  0x55fe
    55e4:	e0 25       	eor	r30, r0
    55e6:	e0 64       	ori	r30, 0x40	; 64
    55e8:	0a c0       	rjmp	.+20     	;  0x55fe
    55ea:	ef 63       	ori	r30, 0x3F	; 63
    55ec:	07 f8       	bld	r0, 7
    55ee:	00 94       	com	r0
    55f0:	07 fa       	bst	r0, 7
    55f2:	db 01       	movw	r26, r22
    55f4:	b9 01       	movw	r22, r18
    55f6:	9d 01       	movw	r18, r26
    55f8:	dc 01       	movw	r26, r24
    55fa:	ca 01       	movw	r24, r20
    55fc:	ad 01       	movw	r20, r26
    55fe:	ef 93       	push	r30
    5600:	4a d0       	rcall	.+148    	;  0x5696
    5602:	b2 d1       	rcall	.+868    	;  0x5968
    5604:	0a d0       	rcall	.+20     	;  0x561a
    5606:	5f 91       	pop	r21
    5608:	55 23       	and	r21, r21
    560a:	31 f0       	breq	.+12     	;  0x5618
    560c:	2b ed       	ldi	r18, 0xDB	; 219
    560e:	3f e0       	ldi	r19, 0x0F	; 15
    5610:	49 e4       	ldi	r20, 0x49	; 73
    5612:	50 fd       	sbrc	r21, 0
    5614:	49 ec       	ldi	r20, 0xC9	; 201
    5616:	63 cf       	rjmp	.-314    	;  0x54de
    5618:	08 95       	ret
    561a:	df 93       	push	r29
    561c:	dd 27       	eor	r29, r29
    561e:	b9 2f       	mov	r27, r25
    5620:	bf 77       	andi	r27, 0x7F	; 127
    5622:	40 e8       	ldi	r20, 0x80	; 128
    5624:	5f e3       	ldi	r21, 0x3F	; 63
    5626:	16 16       	cp	r1, r22
    5628:	17 06       	cpc	r1, r23
    562a:	48 07       	cpc	r20, r24
    562c:	5b 07       	cpc	r21, r27
    562e:	10 f4       	brcc	.+4      	;  0x5634
    5630:	d9 2f       	mov	r29, r25
    5632:	e9 d1       	rcall	.+978    	;  0x5a06
    5634:	9f 93       	push	r25
    5636:	8f 93       	push	r24
    5638:	7f 93       	push	r23
    563a:	6f 93       	push	r22
    563c:	a2 d2       	rcall	.+1348   	;  0x5b82
    563e:	e8 e6       	ldi	r30, 0x68	; 104
    5640:	f0 e0       	ldi	r31, 0x00	; 0
    5642:	1d d1       	rcall	.+570    	;  0x587e
    5644:	91 d1       	rcall	.+802    	;  0x5968
    5646:	2f 91       	pop	r18
    5648:	3f 91       	pop	r19
    564a:	4f 91       	pop	r20
    564c:	5f 91       	pop	r21
    564e:	ee d1       	rcall	.+988    	;  0x5a2c
    5650:	dd 23       	and	r29, r29
    5652:	49 f0       	breq	.+18     	;  0x5666
    5654:	90 58       	subi	r25, 0x80	; 128
    5656:	a2 ea       	ldi	r26, 0xA2	; 162
    5658:	2a ed       	ldi	r18, 0xDA	; 218
    565a:	3f e0       	ldi	r19, 0x0F	; 15
    565c:	49 ec       	ldi	r20, 0xC9	; 201
    565e:	5f e3       	ldi	r21, 0x3F	; 63
    5660:	d0 78       	andi	r29, 0x80	; 128
    5662:	5d 27       	eor	r21, r29
    5664:	4d df       	rcall	.-358    	;  0x5500
    5666:	df 91       	pop	r29
    5668:	7f c1       	rjmp	.+766    	;  0x5968
    566a:	dc d0       	rcall	.+440    	;  0x5824
    566c:	08 f4       	brcc	.+2      	;  0x5670
    566e:	81 e0       	ldi	r24, 0x01	; 1
    5670:	08 95       	ret
    5672:	4a d1       	rcall	.+660    	;  0x5908
    5674:	e3 95       	inc	r30
    5676:	89 c1       	rjmp	.+786    	;  0x598a
    5678:	0c d0       	rcall	.+24     	;  0x5692
    567a:	76 c1       	rjmp	.+748    	;  0x5968
    567c:	3d d1       	rcall	.+634    	;  0x58f8
    567e:	40 f0       	brcs	.+16     	;  0x5690
    5680:	34 d1       	rcall	.+616    	;  0x58ea
    5682:	30 f0       	brcs	.+12     	;  0x5690
    5684:	21 f4       	brne	.+8      	;  0x568e
    5686:	5f 3f       	cpi	r21, 0xFF	; 255
    5688:	19 f0       	breq	.+6      	;  0x5690
    568a:	f0 c0       	rjmp	.+480    	;  0x586c
    568c:	51 11       	cpse	r21, r1
    568e:	b1 c1       	rjmp	.+866    	;  0x59f2
    5690:	f3 c0       	rjmp	.+486    	;  0x5878
    5692:	8c d1       	rcall	.+792    	;  0x59ac
    5694:	98 f3       	brcs	.-26     	;  0x567c
    5696:	99 23       	and	r25, r25
    5698:	c9 f3       	breq	.-14     	;  0x568c
    569a:	55 23       	and	r21, r21
    569c:	b1 f3       	breq	.-20     	;  0x568a
    569e:	95 1b       	sub	r25, r21
    56a0:	55 0b       	sbc	r21, r21
    56a2:	bb 27       	eor	r27, r27
    56a4:	aa 27       	eor	r26, r26
    56a6:	62 17       	cp	r22, r18
    56a8:	73 07       	cpc	r23, r19
    56aa:	84 07       	cpc	r24, r20
    56ac:	38 f0       	brcs	.+14     	;  0x56bc
    56ae:	9f 5f       	subi	r25, 0xFF	; 255
    56b0:	5f 4f       	sbci	r21, 0xFF	; 255
    56b2:	22 0f       	add	r18, r18
    56b4:	33 1f       	adc	r19, r19
    56b6:	44 1f       	adc	r20, r20
    56b8:	aa 1f       	adc	r26, r26
    56ba:	a9 f3       	breq	.-22     	;  0x56a6
    56bc:	33 d0       	rcall	.+102    	;  0x5724
    56be:	0e 2e       	mov	r0, r30
    56c0:	3a f0       	brmi	.+14     	;  0x56d0
    56c2:	e0 e8       	ldi	r30, 0x80	; 128
    56c4:	30 d0       	rcall	.+96     	;  0x5726
    56c6:	91 50       	subi	r25, 0x01	; 1
    56c8:	50 40       	sbci	r21, 0x00	; 0
    56ca:	e6 95       	lsr	r30
    56cc:	00 1c       	adc	r0, r0
    56ce:	ca f7       	brpl	.-14     	;  0x56c2
    56d0:	29 d0       	rcall	.+82     	;  0x5724
    56d2:	fe 2f       	mov	r31, r30
    56d4:	27 d0       	rcall	.+78     	;  0x5724
    56d6:	66 0f       	add	r22, r22
    56d8:	77 1f       	adc	r23, r23
    56da:	88 1f       	adc	r24, r24
    56dc:	bb 1f       	adc	r27, r27
    56de:	26 17       	cp	r18, r22
    56e0:	37 07       	cpc	r19, r23
    56e2:	48 07       	cpc	r20, r24
    56e4:	ab 07       	cpc	r26, r27
    56e6:	b0 e8       	ldi	r27, 0x80	; 128
    56e8:	09 f0       	breq	.+2      	;  0x56ec
    56ea:	bb 0b       	sbc	r27, r27
    56ec:	80 2d       	mov	r24, r0
    56ee:	bf 01       	movw	r22, r30
    56f0:	ff 27       	eor	r31, r31
    56f2:	93 58       	subi	r25, 0x83	; 131
    56f4:	5f 4f       	sbci	r21, 0xFF	; 255
    56f6:	2a f0       	brmi	.+10     	;  0x5702
    56f8:	9e 3f       	cpi	r25, 0xFE	; 254
    56fa:	51 05       	cpc	r21, r1
    56fc:	68 f0       	brcs	.+26     	;  0x5718
    56fe:	b6 c0       	rjmp	.+364    	;  0x586c
    5700:	78 c1       	rjmp	.+752    	;  0x59f2
    5702:	5f 3f       	cpi	r21, 0xFF	; 255
    5704:	ec f3       	brlt	.-6      	;  0x5700
    5706:	98 3e       	cpi	r25, 0xE8	; 232
    5708:	dc f3       	brlt	.-10     	;  0x5700
    570a:	86 95       	lsr	r24
    570c:	77 95       	ror	r23
    570e:	67 95       	ror	r22
    5710:	b7 95       	ror	r27
    5712:	f7 95       	ror	r31
    5714:	9f 5f       	subi	r25, 0xFF	; 255
    5716:	c9 f7       	brne	.-14     	;  0x570a
    5718:	88 0f       	add	r24, r24
    571a:	91 1d       	adc	r25, r1
    571c:	96 95       	lsr	r25
    571e:	87 95       	ror	r24
    5720:	97 f9       	bld	r25, 7
    5722:	08 95       	ret
    5724:	e1 e0       	ldi	r30, 0x01	; 1
    5726:	66 0f       	add	r22, r22
    5728:	77 1f       	adc	r23, r23
    572a:	88 1f       	adc	r24, r24
    572c:	bb 1f       	adc	r27, r27
    572e:	62 17       	cp	r22, r18
    5730:	73 07       	cpc	r23, r19
    5732:	84 07       	cpc	r24, r20
    5734:	ba 07       	cpc	r27, r26
    5736:	20 f0       	brcs	.+8      	;  0x5740
    5738:	62 1b       	sub	r22, r18
    573a:	73 0b       	sbc	r23, r19
    573c:	84 0b       	sbc	r24, r20
    573e:	ba 0b       	sbc	r27, r26
    5740:	ee 1f       	adc	r30, r30
    5742:	88 f7       	brcc	.-30     	;  0x5726
    5744:	e0 95       	com	r30
    5746:	08 95       	ret
    5748:	04 d0       	rcall	.+8      	;  0x5752
    574a:	68 94       	set
    574c:	b1 11       	cpse	r27, r1
    574e:	51 c1       	rjmp	.+674    	;  0x59f2
    5750:	08 95       	ret
    5752:	34 d1       	rcall	.+616    	;  0x59bc
    5754:	88 f0       	brcs	.+34     	;  0x5778
    5756:	9f 57       	subi	r25, 0x7F	; 127
    5758:	90 f0       	brcs	.+36     	;  0x577e
    575a:	b9 2f       	mov	r27, r25
    575c:	99 27       	eor	r25, r25
    575e:	b7 51       	subi	r27, 0x17	; 23
    5760:	a0 f0       	brcs	.+40     	;  0x578a
    5762:	d1 f0       	breq	.+52     	;  0x5798
    5764:	66 0f       	add	r22, r22
    5766:	77 1f       	adc	r23, r23
    5768:	88 1f       	adc	r24, r24
    576a:	99 1f       	adc	r25, r25
    576c:	1a f0       	brmi	.+6      	;  0x5774
    576e:	ba 95       	dec	r27
    5770:	c9 f7       	brne	.-14     	;  0x5764
    5772:	12 c0       	rjmp	.+36     	;  0x5798
    5774:	b1 30       	cpi	r27, 0x01	; 1
    5776:	81 f0       	breq	.+32     	;  0x5798
    5778:	3b d1       	rcall	.+630    	;  0x59f0
    577a:	b1 e0       	ldi	r27, 0x01	; 1
    577c:	08 95       	ret
    577e:	38 c1       	rjmp	.+624    	;  0x59f0
    5780:	67 2f       	mov	r22, r23
    5782:	78 2f       	mov	r23, r24
    5784:	88 27       	eor	r24, r24
    5786:	b8 5f       	subi	r27, 0xF8	; 248
    5788:	39 f0       	breq	.+14     	;  0x5798
    578a:	b9 3f       	cpi	r27, 0xF9	; 249
    578c:	cc f3       	brlt	.-14     	;  0x5780
    578e:	86 95       	lsr	r24
    5790:	77 95       	ror	r23
    5792:	67 95       	ror	r22
    5794:	b3 95       	inc	r27
    5796:	d9 f7       	brne	.-10     	;  0x578e
    5798:	3e f4       	brtc	.+14     	;  0x57a8
    579a:	90 95       	com	r25
    579c:	80 95       	com	r24
    579e:	70 95       	com	r23
    57a0:	61 95       	neg	r22
    57a2:	7f 4f       	sbci	r23, 0xFF	; 255
    57a4:	8f 4f       	sbci	r24, 0xFF	; 255
    57a6:	9f 4f       	sbci	r25, 0xFF	; 255
    57a8:	08 95       	ret
    57aa:	e8 94       	clt
    57ac:	09 c0       	rjmp	.+18     	;  0x57c0
    57ae:	97 fb       	bst	r25, 7
    57b0:	3e f4       	brtc	.+14     	;  0x57c0
    57b2:	90 95       	com	r25
    57b4:	80 95       	com	r24
    57b6:	70 95       	com	r23
    57b8:	61 95       	neg	r22
    57ba:	7f 4f       	sbci	r23, 0xFF	; 255
    57bc:	8f 4f       	sbci	r24, 0xFF	; 255
    57be:	9f 4f       	sbci	r25, 0xFF	; 255
    57c0:	99 23       	and	r25, r25
    57c2:	a9 f0       	breq	.+42     	;  0x57ee
    57c4:	f9 2f       	mov	r31, r25
    57c6:	96 e9       	ldi	r25, 0x96	; 150
    57c8:	bb 27       	eor	r27, r27
    57ca:	93 95       	inc	r25
    57cc:	f6 95       	lsr	r31
    57ce:	87 95       	ror	r24
    57d0:	77 95       	ror	r23
    57d2:	67 95       	ror	r22
    57d4:	b7 95       	ror	r27
    57d6:	f1 11       	cpse	r31, r1
    57d8:	f8 cf       	rjmp	.-16     	;  0x57ca
    57da:	fa f4       	brpl	.+62     	;  0x581a
    57dc:	bb 0f       	add	r27, r27
    57de:	11 f4       	brne	.+4      	;  0x57e4
    57e0:	60 ff       	sbrs	r22, 0
    57e2:	1b c0       	rjmp	.+54     	;  0x581a
    57e4:	6f 5f       	subi	r22, 0xFF	; 255
    57e6:	7f 4f       	sbci	r23, 0xFF	; 255
    57e8:	8f 4f       	sbci	r24, 0xFF	; 255
    57ea:	9f 4f       	sbci	r25, 0xFF	; 255
    57ec:	16 c0       	rjmp	.+44     	;  0x581a
    57ee:	88 23       	and	r24, r24
    57f0:	11 f0       	breq	.+4      	;  0x57f6
    57f2:	96 e9       	ldi	r25, 0x96	; 150
    57f4:	11 c0       	rjmp	.+34     	;  0x5818
    57f6:	77 23       	and	r23, r23
    57f8:	21 f0       	breq	.+8      	;  0x5802
    57fa:	9e e8       	ldi	r25, 0x8E	; 142
    57fc:	87 2f       	mov	r24, r23
    57fe:	76 2f       	mov	r23, r22
    5800:	05 c0       	rjmp	.+10     	;  0x580c
    5802:	66 23       	and	r22, r22
    5804:	71 f0       	breq	.+28     	;  0x5822
    5806:	96 e8       	ldi	r25, 0x86	; 134
    5808:	86 2f       	mov	r24, r22
    580a:	70 e0       	ldi	r23, 0x00	; 0
    580c:	60 e0       	ldi	r22, 0x00	; 0
    580e:	2a f0       	brmi	.+10     	;  0x581a
    5810:	9a 95       	dec	r25
    5812:	66 0f       	add	r22, r22
    5814:	77 1f       	adc	r23, r23
    5816:	88 1f       	adc	r24, r24
    5818:	da f7       	brpl	.-10     	;  0x5810
    581a:	88 0f       	add	r24, r24
    581c:	96 95       	lsr	r25
    581e:	87 95       	ror	r24
    5820:	97 f9       	bld	r25, 7
    5822:	08 95       	ret
    5824:	99 0f       	add	r25, r25
    5826:	00 08       	sbc	r0, r0
    5828:	55 0f       	add	r21, r21
    582a:	aa 0b       	sbc	r26, r26
    582c:	e0 e8       	ldi	r30, 0x80	; 128
    582e:	fe ef       	ldi	r31, 0xFE	; 254
    5830:	16 16       	cp	r1, r22
    5832:	17 06       	cpc	r1, r23
    5834:	e8 07       	cpc	r30, r24
    5836:	f9 07       	cpc	r31, r25
    5838:	c0 f0       	brcs	.+48     	;  0x586a
    583a:	12 16       	cp	r1, r18
    583c:	13 06       	cpc	r1, r19
    583e:	e4 07       	cpc	r30, r20
    5840:	f5 07       	cpc	r31, r21
    5842:	98 f0       	brcs	.+38     	;  0x586a
    5844:	62 1b       	sub	r22, r18
    5846:	73 0b       	sbc	r23, r19
    5848:	84 0b       	sbc	r24, r20
    584a:	95 0b       	sbc	r25, r21
    584c:	39 f4       	brne	.+14     	;  0x585c
    584e:	0a 26       	eor	r0, r26
    5850:	61 f0       	breq	.+24     	;  0x586a
    5852:	23 2b       	or	r18, r19
    5854:	24 2b       	or	r18, r20
    5856:	25 2b       	or	r18, r21
    5858:	21 f4       	brne	.+8      	;  0x5862
    585a:	08 95       	ret
    585c:	0a 26       	eor	r0, r26
    585e:	09 f4       	brne	.+2      	;  0x5862
    5860:	a1 40       	sbci	r26, 0x01	; 1
    5862:	a6 95       	lsr	r26
    5864:	8f ef       	ldi	r24, 0xFF	; 255
    5866:	81 1d       	adc	r24, r1
    5868:	81 1d       	adc	r24, r1
    586a:	08 95       	ret
    586c:	97 f9       	bld	r25, 7
    586e:	9f 67       	ori	r25, 0x7F	; 127
    5870:	80 e8       	ldi	r24, 0x80	; 128
    5872:	70 e0       	ldi	r23, 0x00	; 0
    5874:	60 e0       	ldi	r22, 0x00	; 0
    5876:	08 95       	ret
    5878:	9f ef       	ldi	r25, 0xFF	; 255
    587a:	80 ec       	ldi	r24, 0xC0	; 192
    587c:	08 95       	ret
    587e:	df 93       	push	r29
    5880:	cf 93       	push	r28
    5882:	1f 93       	push	r17
    5884:	0f 93       	push	r16
    5886:	ff 92       	push	r15
    5888:	ef 92       	push	r14
    588a:	df 92       	push	r13
    588c:	7b 01       	movw	r14, r22
    588e:	8c 01       	movw	r16, r24
    5890:	68 94       	set
    5892:	05 c0       	rjmp	.+10     	;  0x589e
    5894:	da 2e       	mov	r13, r26
    5896:	ef 01       	movw	r28, r30
    5898:	c9 d0       	rcall	.+402    	;  0x5a2c
    589a:	fe 01       	movw	r30, r28
    589c:	e8 94       	clt
    589e:	a5 91       	lpm	r26, Z+
    58a0:	25 91       	lpm	r18, Z+
    58a2:	35 91       	lpm	r19, Z+
    58a4:	45 91       	lpm	r20, Z+
    58a6:	55 91       	lpm	r21, Z+
    58a8:	ae f3       	brts	.-22     	;  0x5894
    58aa:	ef 01       	movw	r28, r30
    58ac:	29 de       	rcall	.-942    	;  0x5500
    58ae:	fe 01       	movw	r30, r28
    58b0:	97 01       	movw	r18, r14
    58b2:	a8 01       	movw	r20, r16
    58b4:	da 94       	dec	r13
    58b6:	79 f7       	brne	.-34     	;  0x5896
    58b8:	df 90       	pop	r13
    58ba:	ef 90       	pop	r14
    58bc:	ff 90       	pop	r15
    58be:	0f 91       	pop	r16
    58c0:	1f 91       	pop	r17
    58c2:	cf 91       	pop	r28
    58c4:	df 91       	pop	r29
    58c6:	08 95       	ret
    58c8:	9f 93       	push	r25
    58ca:	8f 93       	push	r24
    58cc:	7f 93       	push	r23
    58ce:	6f 93       	push	r22
    58d0:	ff 93       	push	r31
    58d2:	ef 93       	push	r30
    58d4:	9b 01       	movw	r18, r22
    58d6:	ac 01       	movw	r20, r24
    58d8:	9d d0       	rcall	.+314    	;  0x5a14
    58da:	ef 91       	pop	r30
    58dc:	ff 91       	pop	r31
    58de:	cf df       	rcall	.-98     	;  0x587e
    58e0:	2f 91       	pop	r18
    58e2:	3f 91       	pop	r19
    58e4:	4f 91       	pop	r20
    58e6:	5f 91       	pop	r21
    58e8:	95 c0       	rjmp	.+298    	;  0x5a14
    58ea:	00 24       	eor	r0, r0
    58ec:	0a 94       	dec	r0
    58ee:	16 16       	cp	r1, r22
    58f0:	17 06       	cpc	r1, r23
    58f2:	18 06       	cpc	r1, r24
    58f4:	09 06       	cpc	r0, r25
    58f6:	08 95       	ret
    58f8:	00 24       	eor	r0, r0
    58fa:	0a 94       	dec	r0
    58fc:	12 16       	cp	r1, r18
    58fe:	13 06       	cpc	r1, r19
    5900:	14 06       	cpc	r1, r20
    5902:	05 06       	cpc	r0, r21
    5904:	08 95       	ret
    5906:	b8 cf       	rjmp	.-144    	;  0x5878
    5908:	59 d0       	rcall	.+178    	;  0x59bc
    590a:	e8 f3       	brcs	.-6      	;  0x5906
    590c:	e8 94       	clt
    590e:	ef ef       	ldi	r30, 0xFF	; 255
    5910:	bb 27       	eor	r27, r27
    5912:	3f e0       	ldi	r19, 0x0F	; 15
    5914:	48 ec       	ldi	r20, 0xC8	; 200
    5916:	5f e7       	ldi	r21, 0x7F	; 127
    5918:	6b 3d       	cpi	r22, 0xDB	; 219
    591a:	73 07       	cpc	r23, r19
    591c:	84 07       	cpc	r24, r20
    591e:	95 07       	cpc	r25, r21
    5920:	08 f1       	brcs	.+66     	;  0x5964
    5922:	ff 27       	eor	r31, r31
    5924:	9f 57       	subi	r25, 0x7F	; 127
    5926:	b2 5a       	subi	r27, 0xA2	; 162
    5928:	6a 4d       	sbci	r22, 0xDA	; 218
    592a:	7f 40       	sbci	r23, 0x0F	; 15
    592c:	89 4c       	sbci	r24, 0xC9	; 201
    592e:	f0 40       	sbci	r31, 0x00	; 0
    5930:	32 f4       	brpl	.+12     	;  0x593e
    5932:	be 55       	subi	r27, 0x5E	; 94
    5934:	65 42       	sbci	r22, 0x25	; 37
    5936:	70 4f       	sbci	r23, 0xF0	; 240
    5938:	86 43       	sbci	r24, 0x36	; 54
    593a:	ff 4f       	sbci	r31, 0xFF	; 255
    593c:	08 94       	sec
    593e:	ee 1f       	adc	r30, r30
    5940:	91 50       	subi	r25, 0x01	; 1
    5942:	30 f0       	brcs	.+12     	;  0x5950
    5944:	bb 0f       	add	r27, r27
    5946:	66 1f       	adc	r22, r22
    5948:	77 1f       	adc	r23, r23
    594a:	88 1f       	adc	r24, r24
    594c:	ff 1f       	adc	r31, r31
    594e:	eb cf       	rjmp	.-42     	;  0x5926
    5950:	9e e7       	ldi	r25, 0x7E	; 126
    5952:	88 23       	and	r24, r24
    5954:	32 f0       	brmi	.+12     	;  0x5962
    5956:	bb 0f       	add	r27, r27
    5958:	66 1f       	adc	r22, r22
    595a:	77 1f       	adc	r23, r23
    595c:	88 1f       	adc	r24, r24
    595e:	9a 95       	dec	r25
    5960:	c1 f7       	brne	.-16     	;  0x5952
    5962:	93 95       	inc	r25
    5964:	e0 95       	com	r30
    5966:	14 c1       	rjmp	.+552    	;  0x5b90
    5968:	09 2e       	mov	r0, r25
    596a:	03 94       	inc	r0
    596c:	00 0c       	add	r0, r0
    596e:	11 f4       	brne	.+4      	;  0x5974
    5970:	88 23       	and	r24, r24
    5972:	52 f0       	brmi	.+20     	;  0x5988
    5974:	bb 0f       	add	r27, r27
    5976:	40 f4       	brcc	.+16     	;  0x5988
    5978:	bf 2b       	or	r27, r31
    597a:	11 f4       	brne	.+4      	;  0x5980
    597c:	60 ff       	sbrs	r22, 0
    597e:	04 c0       	rjmp	.+8      	;  0x5988
    5980:	6f 5f       	subi	r22, 0xFF	; 255
    5982:	7f 4f       	sbci	r23, 0xFF	; 255
    5984:	8f 4f       	sbci	r24, 0xFF	; 255
    5986:	9f 4f       	sbci	r25, 0xFF	; 255
    5988:	08 95       	ret
    598a:	ef 93       	push	r30
    598c:	e0 ff       	sbrs	r30, 0
    598e:	06 c0       	rjmp	.+12     	;  0x599c
    5990:	a2 ea       	ldi	r26, 0xA2	; 162
    5992:	2a ed       	ldi	r18, 0xDA	; 218
    5994:	3f e0       	ldi	r19, 0x0F	; 15
    5996:	49 ec       	ldi	r20, 0xC9	; 201
    5998:	5f eb       	ldi	r21, 0xBF	; 191
    599a:	b2 dd       	rcall	.-1180   	;  0x5500
    599c:	e5 df       	rcall	.-54     	;  0x5968
    599e:	0f 90       	pop	r0
    59a0:	03 94       	inc	r0
    59a2:	01 fc       	sbrc	r0, 1
    59a4:	90 58       	subi	r25, 0x80	; 128
    59a6:	e5 e9       	ldi	r30, 0x95	; 149
    59a8:	f0 e0       	ldi	r31, 0x00	; 0
    59aa:	8e cf       	rjmp	.-228    	;  0x58c8
    59ac:	57 fd       	sbrc	r21, 7
    59ae:	90 58       	subi	r25, 0x80	; 128
    59b0:	44 0f       	add	r20, r20
    59b2:	55 1f       	adc	r21, r21
    59b4:	59 f0       	breq	.+22     	;  0x59cc
    59b6:	5f 3f       	cpi	r21, 0xFF	; 255
    59b8:	71 f0       	breq	.+28     	;  0x59d6
    59ba:	47 95       	ror	r20
    59bc:	88 0f       	add	r24, r24
    59be:	97 fb       	bst	r25, 7
    59c0:	99 1f       	adc	r25, r25
    59c2:	61 f0       	breq	.+24     	;  0x59dc
    59c4:	9f 3f       	cpi	r25, 0xFF	; 255
    59c6:	79 f0       	breq	.+30     	;  0x59e6
    59c8:	87 95       	ror	r24
    59ca:	08 95       	ret
    59cc:	12 16       	cp	r1, r18
    59ce:	13 06       	cpc	r1, r19
    59d0:	14 06       	cpc	r1, r20
    59d2:	55 1f       	adc	r21, r21
    59d4:	f2 cf       	rjmp	.-28     	;  0x59ba
    59d6:	46 95       	lsr	r20
    59d8:	f1 df       	rcall	.-30     	;  0x59bc
    59da:	08 c0       	rjmp	.+16     	;  0x59ec
    59dc:	16 16       	cp	r1, r22
    59de:	17 06       	cpc	r1, r23
    59e0:	18 06       	cpc	r1, r24
    59e2:	99 1f       	adc	r25, r25
    59e4:	f1 cf       	rjmp	.-30     	;  0x59c8
    59e6:	86 95       	lsr	r24
    59e8:	71 05       	cpc	r23, r1
    59ea:	61 05       	cpc	r22, r1
    59ec:	08 94       	sec
    59ee:	08 95       	ret
    59f0:	e8 94       	clt
    59f2:	bb 27       	eor	r27, r27
    59f4:	66 27       	eor	r22, r22
    59f6:	77 27       	eor	r23, r23
    59f8:	cb 01       	movw	r24, r22
    59fa:	97 f9       	bld	r25, 7
    59fc:	08 95       	ret
    59fe:	12 df       	rcall	.-476    	;  0x5824
    5a00:	08 f4       	brcc	.+2      	;  0x5a04
    5a02:	8f ef       	ldi	r24, 0xFF	; 255
    5a04:	08 95       	ret
    5a06:	9b 01       	movw	r18, r22
    5a08:	ac 01       	movw	r20, r24
    5a0a:	60 e0       	ldi	r22, 0x00	; 0
    5a0c:	70 e0       	ldi	r23, 0x00	; 0
    5a0e:	80 e8       	ldi	r24, 0x80	; 128
    5a10:	9f e3       	ldi	r25, 0x3F	; 63
    5a12:	32 ce       	rjmp	.-924    	;  0x5678
    5a14:	0b d0       	rcall	.+22     	;  0x5a2c
    5a16:	a8 cf       	rjmp	.-176    	;  0x5968
    5a18:	68 df       	rcall	.-304    	;  0x58ea
    5a1a:	28 f0       	brcs	.+10     	;  0x5a26
    5a1c:	6d df       	rcall	.-294    	;  0x58f8
    5a1e:	18 f0       	brcs	.+6      	;  0x5a26
    5a20:	95 23       	and	r25, r21
    5a22:	09 f0       	breq	.+2      	;  0x5a26
    5a24:	23 cf       	rjmp	.-442    	;  0x586c
    5a26:	28 cf       	rjmp	.-432    	;  0x5878
    5a28:	11 24       	eor	r1, r1
    5a2a:	e3 cf       	rjmp	.-58     	;  0x59f2
    5a2c:	bf df       	rcall	.-130    	;  0x59ac
    5a2e:	a0 f3       	brcs	.-24     	;  0x5a18
    5a30:	95 9f       	mul	r25, r21
    5a32:	d1 f3       	breq	.-12     	;  0x5a28
    5a34:	95 0f       	add	r25, r21
    5a36:	50 e0       	ldi	r21, 0x00	; 0
    5a38:	55 1f       	adc	r21, r21
    5a3a:	62 9f       	mul	r22, r18
    5a3c:	f0 01       	movw	r30, r0
    5a3e:	72 9f       	mul	r23, r18
    5a40:	bb 27       	eor	r27, r27
    5a42:	f0 0d       	add	r31, r0
    5a44:	b1 1d       	adc	r27, r1
    5a46:	63 9f       	mul	r22, r19
    5a48:	aa 27       	eor	r26, r26
    5a4a:	f0 0d       	add	r31, r0
    5a4c:	b1 1d       	adc	r27, r1
    5a4e:	aa 1f       	adc	r26, r26
    5a50:	64 9f       	mul	r22, r20
    5a52:	66 27       	eor	r22, r22
    5a54:	b0 0d       	add	r27, r0
    5a56:	a1 1d       	adc	r26, r1
    5a58:	66 1f       	adc	r22, r22
    5a5a:	82 9f       	mul	r24, r18
    5a5c:	22 27       	eor	r18, r18
    5a5e:	b0 0d       	add	r27, r0
    5a60:	a1 1d       	adc	r26, r1
    5a62:	62 1f       	adc	r22, r18
    5a64:	73 9f       	mul	r23, r19
    5a66:	b0 0d       	add	r27, r0
    5a68:	a1 1d       	adc	r26, r1
    5a6a:	62 1f       	adc	r22, r18
    5a6c:	83 9f       	mul	r24, r19
    5a6e:	a0 0d       	add	r26, r0
    5a70:	61 1d       	adc	r22, r1
    5a72:	22 1f       	adc	r18, r18
    5a74:	74 9f       	mul	r23, r20
    5a76:	33 27       	eor	r19, r19
    5a78:	a0 0d       	add	r26, r0
    5a7a:	61 1d       	adc	r22, r1
    5a7c:	23 1f       	adc	r18, r19
    5a7e:	84 9f       	mul	r24, r20
    5a80:	60 0d       	add	r22, r0
    5a82:	21 1d       	adc	r18, r1
    5a84:	82 2f       	mov	r24, r18
    5a86:	76 2f       	mov	r23, r22
    5a88:	6a 2f       	mov	r22, r26
    5a8a:	11 24       	eor	r1, r1
    5a8c:	9f 57       	subi	r25, 0x7F	; 127
    5a8e:	50 40       	sbci	r21, 0x00	; 0
    5a90:	8a f0       	brmi	.+34     	;  0x5ab4
    5a92:	e1 f0       	breq	.+56     	;  0x5acc
    5a94:	88 23       	and	r24, r24
    5a96:	4a f0       	brmi	.+18     	;  0x5aaa
    5a98:	ee 0f       	add	r30, r30
    5a9a:	ff 1f       	adc	r31, r31
    5a9c:	bb 1f       	adc	r27, r27
    5a9e:	66 1f       	adc	r22, r22
    5aa0:	77 1f       	adc	r23, r23
    5aa2:	88 1f       	adc	r24, r24
    5aa4:	91 50       	subi	r25, 0x01	; 1
    5aa6:	50 40       	sbci	r21, 0x00	; 0
    5aa8:	a9 f7       	brne	.-22     	;  0x5a94
    5aaa:	9e 3f       	cpi	r25, 0xFE	; 254
    5aac:	51 05       	cpc	r21, r1
    5aae:	70 f0       	brcs	.+28     	;  0x5acc
    5ab0:	dd ce       	rjmp	.-582    	;  0x586c
    5ab2:	9f cf       	rjmp	.-194    	;  0x59f2
    5ab4:	5f 3f       	cpi	r21, 0xFF	; 255
    5ab6:	ec f3       	brlt	.-6      	;  0x5ab2
    5ab8:	98 3e       	cpi	r25, 0xE8	; 232
    5aba:	dc f3       	brlt	.-10     	;  0x5ab2
    5abc:	86 95       	lsr	r24
    5abe:	77 95       	ror	r23
    5ac0:	67 95       	ror	r22
    5ac2:	b7 95       	ror	r27
    5ac4:	f7 95       	ror	r31
    5ac6:	e7 95       	ror	r30
    5ac8:	9f 5f       	subi	r25, 0xFF	; 255
    5aca:	c1 f7       	brne	.-16     	;  0x5abc
    5acc:	fe 2b       	or	r31, r30
    5ace:	88 0f       	add	r24, r24
    5ad0:	91 1d       	adc	r25, r1
    5ad2:	96 95       	lsr	r25
    5ad4:	87 95       	ror	r24
    5ad6:	97 f9       	bld	r25, 7
    5ad8:	08 95       	ret
    5ada:	9f 93       	push	r25
    5adc:	15 df       	rcall	.-470    	;  0x5908
    5ade:	0f 90       	pop	r0
    5ae0:	07 fc       	sbrc	r0, 7
    5ae2:	ee 5f       	subi	r30, 0xFE	; 254
    5ae4:	52 cf       	rjmp	.-348    	;  0x598a
    5ae6:	11 f4       	brne	.+4      	;  0x5aec
    5ae8:	0e f4       	brtc	.+2      	;  0x5aec
    5aea:	c6 ce       	rjmp	.-628    	;  0x5878
    5aec:	51 c0       	rjmp	.+162    	;  0x5b90
    5aee:	66 df       	rcall	.-308    	;  0x59bc
    5af0:	d0 f3       	brcs	.-12     	;  0x5ae6
    5af2:	99 23       	and	r25, r25
    5af4:	d9 f3       	breq	.-10     	;  0x5aec
    5af6:	ce f3       	brts	.-14     	;  0x5aea
    5af8:	9f 57       	subi	r25, 0x7F	; 127
    5afa:	55 0b       	sbc	r21, r21
    5afc:	87 ff       	sbrs	r24, 7
    5afe:	58 d0       	rcall	.+176    	;  0x5bb0
    5b00:	56 95       	lsr	r21
    5b02:	97 95       	ror	r25
    5b04:	b0 e0       	ldi	r27, 0x00	; 0
    5b06:	20 f4       	brcc	.+8      	;  0x5b10
    5b08:	66 0f       	add	r22, r22
    5b0a:	77 1f       	adc	r23, r23
    5b0c:	88 1f       	adc	r24, r24
    5b0e:	bb 1f       	adc	r27, r27
    5b10:	1f 93       	push	r17
    5b12:	0f 93       	push	r16
    5b14:	00 24       	eor	r0, r0
    5b16:	90 01       	movw	r18, r0
    5b18:	a0 01       	movw	r20, r0
    5b1a:	80 01       	movw	r16, r0
    5b1c:	f0 01       	movw	r30, r0
    5b1e:	a0 e8       	ldi	r26, 0x80	; 128
    5b20:	0e 0f       	add	r16, r30
    5b22:	1f 1f       	adc	r17, r31
    5b24:	0a 1e       	adc	r0, r26
    5b26:	51 1d       	adc	r21, r1
    5b28:	60 1b       	sub	r22, r16
    5b2a:	71 0b       	sbc	r23, r17
    5b2c:	80 09       	sbc	r24, r0
    5b2e:	b5 0b       	sbc	r27, r21
    5b30:	48 f4       	brcc	.+18     	;  0x5b44
    5b32:	60 0f       	add	r22, r16
    5b34:	71 1f       	adc	r23, r17
    5b36:	80 1d       	adc	r24, r0
    5b38:	b5 1f       	adc	r27, r21
    5b3a:	0e 1b       	sub	r16, r30
    5b3c:	1f 0b       	sbc	r17, r31
    5b3e:	0a 0a       	sbc	r0, r26
    5b40:	51 09       	sbc	r21, r1
    5b42:	07 c0       	rjmp	.+14     	;  0x5b52
    5b44:	2e 0f       	add	r18, r30
    5b46:	3f 1f       	adc	r19, r31
    5b48:	4a 1f       	adc	r20, r26
    5b4a:	0e 0f       	add	r16, r30
    5b4c:	1f 1f       	adc	r17, r31
    5b4e:	0a 1e       	adc	r0, r26
    5b50:	51 1d       	adc	r21, r1
    5b52:	66 0f       	add	r22, r22
    5b54:	77 1f       	adc	r23, r23
    5b56:	88 1f       	adc	r24, r24
    5b58:	bb 1f       	adc	r27, r27
    5b5a:	a6 95       	lsr	r26
    5b5c:	f7 95       	ror	r31
    5b5e:	e7 95       	ror	r30
    5b60:	f8 f6       	brcc	.-66     	;  0x5b20
    5b62:	06 17       	cp	r16, r22
    5b64:	17 07       	cpc	r17, r23
    5b66:	08 06       	cpc	r0, r24
    5b68:	5b 07       	cpc	r21, r27
    5b6a:	21 1d       	adc	r18, r1
    5b6c:	31 1d       	adc	r19, r1
    5b6e:	41 1d       	adc	r20, r1
    5b70:	0f 91       	pop	r16
    5b72:	1f 91       	pop	r17
    5b74:	b9 01       	movw	r22, r18
    5b76:	84 2f       	mov	r24, r20
    5b78:	91 58       	subi	r25, 0x81	; 129
    5b7a:	88 0f       	add	r24, r24
    5b7c:	96 95       	lsr	r25
    5b7e:	87 95       	ror	r24
    5b80:	08 95       	ret
    5b82:	9b 01       	movw	r18, r22
    5b84:	ac 01       	movw	r20, r24
    5b86:	46 cf       	rjmp	.-372    	;  0x5a14
    5b88:	4d de       	rcall	.-870    	;  0x5824
    5b8a:	88 0b       	sbc	r24, r24
    5b8c:	99 0b       	sbc	r25, r25
    5b8e:	08 95       	ret
    5b90:	9f 3f       	cpi	r25, 0xFF	; 255
    5b92:	49 f0       	breq	.+18     	;  0x5ba6
    5b94:	91 50       	subi	r25, 0x01	; 1
    5b96:	28 f4       	brcc	.+10     	;  0x5ba2
    5b98:	86 95       	lsr	r24
    5b9a:	77 95       	ror	r23
    5b9c:	67 95       	ror	r22
    5b9e:	b7 95       	ror	r27
    5ba0:	9f 5f       	subi	r25, 0xFF	; 255
    5ba2:	80 38       	cpi	r24, 0x80	; 128
    5ba4:	9f 4f       	sbci	r25, 0xFF	; 255
    5ba6:	88 0f       	add	r24, r24
    5ba8:	96 95       	lsr	r25
    5baa:	87 95       	ror	r24
    5bac:	97 f9       	bld	r25, 7
    5bae:	08 95       	ret
    5bb0:	91 50       	subi	r25, 0x01	; 1
    5bb2:	50 40       	sbci	r21, 0x00	; 0
    5bb4:	66 0f       	add	r22, r22
    5bb6:	77 1f       	adc	r23, r23
    5bb8:	88 1f       	adc	r24, r24
    5bba:	d2 f7       	brpl	.-12     	;  0x5bb0
    5bbc:	08 95       	ret
    5bbe:	80 32       	cpi	r24, 0x20	; 32
    5bc0:	09 f0       	breq	.+2      	;  0x5bc4
    5bc2:	91 11       	cpse	r25, r1
    5bc4:	04 c0       	rjmp	.+8      	;  0x5bce
    5bc6:	80 52       	subi	r24, 0x20	; 32
    5bc8:	8f 55       	subi	r24, 0x5F	; 95
    5bca:	e0 f7       	brcc	.-8      	;  0x5bc4
    5bcc:	08 95       	ret
    5bce:	99 27       	eor	r25, r25
    5bd0:	88 27       	eor	r24, r24
    5bd2:	08 95       	ret
    5bd4:	62 9f       	mul	r22, r18
    5bd6:	d0 01       	movw	r26, r0
    5bd8:	73 9f       	mul	r23, r19
    5bda:	f0 01       	movw	r30, r0
    5bdc:	82 9f       	mul	r24, r18
    5bde:	e0 0d       	add	r30, r0
    5be0:	f1 1d       	adc	r31, r1
    5be2:	64 9f       	mul	r22, r20
    5be4:	e0 0d       	add	r30, r0
    5be6:	f1 1d       	adc	r31, r1
    5be8:	92 9f       	mul	r25, r18
    5bea:	f0 0d       	add	r31, r0
    5bec:	83 9f       	mul	r24, r19
    5bee:	f0 0d       	add	r31, r0
    5bf0:	74 9f       	mul	r23, r20
    5bf2:	f0 0d       	add	r31, r0
    5bf4:	65 9f       	mul	r22, r21
    5bf6:	f0 0d       	add	r31, r0
    5bf8:	99 27       	eor	r25, r25
    5bfa:	72 9f       	mul	r23, r18
    5bfc:	b0 0d       	add	r27, r0
    5bfe:	e1 1d       	adc	r30, r1
    5c00:	f9 1f       	adc	r31, r25
    5c02:	63 9f       	mul	r22, r19
    5c04:	b0 0d       	add	r27, r0
    5c06:	e1 1d       	adc	r30, r1
    5c08:	f9 1f       	adc	r31, r25
    5c0a:	bd 01       	movw	r22, r26
    5c0c:	cf 01       	movw	r24, r30
    5c0e:	11 24       	eor	r1, r1
    5c10:	08 95       	ret
    5c12:	aa 1b       	sub	r26, r26
    5c14:	bb 1b       	sub	r27, r27
    5c16:	51 e1       	ldi	r21, 0x11	; 17
    5c18:	07 c0       	rjmp	.+14     	;  0x5c28
    5c1a:	aa 1f       	adc	r26, r26
    5c1c:	bb 1f       	adc	r27, r27
    5c1e:	a6 17       	cp	r26, r22
    5c20:	b7 07       	cpc	r27, r23
    5c22:	10 f0       	brcs	.+4      	;  0x5c28
    5c24:	a6 1b       	sub	r26, r22
    5c26:	b7 0b       	sbc	r27, r23
    5c28:	88 1f       	adc	r24, r24
    5c2a:	99 1f       	adc	r25, r25
    5c2c:	5a 95       	dec	r21
    5c2e:	a9 f7       	brne	.-22     	;  0x5c1a
    5c30:	80 95       	com	r24
    5c32:	90 95       	com	r25
    5c34:	bc 01       	movw	r22, r24
    5c36:	cd 01       	movw	r24, r26
    5c38:	08 95       	ret
    5c3a:	97 fb       	bst	r25, 7
    5c3c:	09 2e       	mov	r0, r25
    5c3e:	07 26       	eor	r0, r23
    5c40:	0a d0       	rcall	.+20     	;  0x5c56
    5c42:	77 fd       	sbrc	r23, 7
    5c44:	04 d0       	rcall	.+8      	;  0x5c4e
    5c46:	e5 df       	rcall	.-54     	;  0x5c12
    5c48:	06 d0       	rcall	.+12     	;  0x5c56
    5c4a:	00 20       	and	r0, r0
    5c4c:	1a f4       	brpl	.+6      	;  0x5c54
    5c4e:	70 95       	com	r23
    5c50:	61 95       	neg	r22
    5c52:	7f 4f       	sbci	r23, 0xFF	; 255
    5c54:	08 95       	ret
    5c56:	f6 f7       	brtc	.-4      	;  0x5c54
    5c58:	90 95       	com	r25
    5c5a:	81 95       	neg	r24
    5c5c:	9f 4f       	sbci	r25, 0xFF	; 255
    5c5e:	08 95       	ret
    5c60:	a1 e2       	ldi	r26, 0x21	; 33
    5c62:	1a 2e       	mov	r1, r26
    5c64:	aa 1b       	sub	r26, r26
    5c66:	bb 1b       	sub	r27, r27
    5c68:	fd 01       	movw	r30, r26
    5c6a:	0d c0       	rjmp	.+26     	;  0x5c86
    5c6c:	aa 1f       	adc	r26, r26
    5c6e:	bb 1f       	adc	r27, r27
    5c70:	ee 1f       	adc	r30, r30
    5c72:	ff 1f       	adc	r31, r31
    5c74:	a2 17       	cp	r26, r18
    5c76:	b3 07       	cpc	r27, r19
    5c78:	e4 07       	cpc	r30, r20
    5c7a:	f5 07       	cpc	r31, r21
    5c7c:	20 f0       	brcs	.+8      	;  0x5c86
    5c7e:	a2 1b       	sub	r26, r18
    5c80:	b3 0b       	sbc	r27, r19
    5c82:	e4 0b       	sbc	r30, r20
    5c84:	f5 0b       	sbc	r31, r21
    5c86:	66 1f       	adc	r22, r22
    5c88:	77 1f       	adc	r23, r23
    5c8a:	88 1f       	adc	r24, r24
    5c8c:	99 1f       	adc	r25, r25
    5c8e:	1a 94       	dec	r1
    5c90:	69 f7       	brne	.-38     	;  0x5c6c
    5c92:	60 95       	com	r22
    5c94:	70 95       	com	r23
    5c96:	80 95       	com	r24
    5c98:	90 95       	com	r25
    5c9a:	9b 01       	movw	r18, r22
    5c9c:	ac 01       	movw	r20, r24
    5c9e:	bd 01       	movw	r22, r26
    5ca0:	cf 01       	movw	r24, r30
    5ca2:	08 95       	ret
    5ca4:	97 fb       	bst	r25, 7
    5ca6:	09 2e       	mov	r0, r25
    5ca8:	05 26       	eor	r0, r21
    5caa:	0e d0       	rcall	.+28     	;  0x5cc8
    5cac:	57 fd       	sbrc	r21, 7
    5cae:	04 d0       	rcall	.+8      	;  0x5cb8
    5cb0:	d7 df       	rcall	.-82     	;  0x5c60
    5cb2:	0a d0       	rcall	.+20     	;  0x5cc8
    5cb4:	00 1c       	adc	r0, r0
    5cb6:	38 f4       	brcc	.+14     	;  0x5cc6
    5cb8:	50 95       	com	r21
    5cba:	40 95       	com	r20
    5cbc:	30 95       	com	r19
    5cbe:	21 95       	neg	r18
    5cc0:	3f 4f       	sbci	r19, 0xFF	; 255
    5cc2:	4f 4f       	sbci	r20, 0xFF	; 255
    5cc4:	5f 4f       	sbci	r21, 0xFF	; 255
    5cc6:	08 95       	ret
    5cc8:	f6 f7       	brtc	.-4      	;  0x5cc6
    5cca:	90 95       	com	r25
    5ccc:	80 95       	com	r24
    5cce:	70 95       	com	r23
    5cd0:	61 95       	neg	r22
    5cd2:	7f 4f       	sbci	r23, 0xFF	; 255
    5cd4:	8f 4f       	sbci	r24, 0xFF	; 255
    5cd6:	9f 4f       	sbci	r25, 0xFF	; 255
    5cd8:	08 95       	ret
    5cda:	2f 92       	push	r2
    5cdc:	3f 92       	push	r3
    5cde:	4f 92       	push	r4
    5ce0:	5f 92       	push	r5
    5ce2:	6f 92       	push	r6
    5ce4:	7f 92       	push	r7
    5ce6:	8f 92       	push	r8
    5ce8:	9f 92       	push	r9
    5cea:	af 92       	push	r10
    5cec:	bf 92       	push	r11
    5cee:	cf 92       	push	r12
    5cf0:	df 92       	push	r13
    5cf2:	ef 92       	push	r14
    5cf4:	ff 92       	push	r15
    5cf6:	0f 93       	push	r16
    5cf8:	1f 93       	push	r17
    5cfa:	cf 93       	push	r28
    5cfc:	df 93       	push	r29
    5cfe:	cd b7       	in	r28, 0x3d	; 61
    5d00:	de b7       	in	r29, 0x3e	; 62
    5d02:	ca 1b       	sub	r28, r26
    5d04:	db 0b       	sbc	r29, r27
    5d06:	0f b6       	in	r0, 0x3f	; 63
    5d08:	f8 94       	cli
    5d0a:	de bf       	out	0x3e, r29	; 62
    5d0c:	0f be       	out	0x3f, r0	; 63
    5d0e:	cd bf       	out	0x3d, r28	; 61
    5d10:	09 94       	ijmp
    5d12:	2a 88       	ldd	r2, Y+18	; 0x12
    5d14:	39 88       	ldd	r3, Y+17	; 0x11
    5d16:	48 88       	ldd	r4, Y+16	; 0x10
    5d18:	5f 84       	ldd	r5, Y+15	; 0x0f
    5d1a:	6e 84       	ldd	r6, Y+14	; 0x0e
    5d1c:	7d 84       	ldd	r7, Y+13	; 0x0d
    5d1e:	8c 84       	ldd	r8, Y+12	; 0x0c
    5d20:	9b 84       	ldd	r9, Y+11	; 0x0b
    5d22:	aa 84       	ldd	r10, Y+10	; 0x0a
    5d24:	b9 84       	ldd	r11, Y+9	; 0x09
    5d26:	c8 84       	ldd	r12, Y+8	; 0x08
    5d28:	df 80       	ldd	r13, Y+7	; 0x07
    5d2a:	ee 80       	ldd	r14, Y+6	; 0x06
    5d2c:	fd 80       	ldd	r15, Y+5	; 0x05
    5d2e:	0c 81       	ldd	r16, Y+4	; 0x04
    5d30:	1b 81       	ldd	r17, Y+3	; 0x03
    5d32:	aa 81       	ldd	r26, Y+2	; 0x02
    5d34:	b9 81       	ldd	r27, Y+1	; 0x01
    5d36:	ce 0f       	add	r28, r30
    5d38:	d1 1d       	adc	r29, r1
    5d3a:	0f b6       	in	r0, 0x3f	; 63
    5d3c:	f8 94       	cli
    5d3e:	de bf       	out	0x3e, r29	; 62
    5d40:	0f be       	out	0x3f, r0	; 63
    5d42:	cd bf       	out	0x3d, r28	; 61
    5d44:	ed 01       	movw	r28, r26
    5d46:	08 95       	ret
    5d48:	ee 0f       	add	r30, r30
    5d4a:	ff 1f       	adc	r31, r31
    5d4c:	05 90       	lpm	r0, Z+
    5d4e:	f4 91       	lpm	r31, Z+
    5d50:	e0 2d       	mov	r30, r0
    5d52:	09 94       	ijmp
    5d54:	11 e0       	ldi	r17, 0x01	; 1
    5d56:	c0 e2       	ldi	r28, 0x20	; 32
    5d58:	d1 e0       	ldi	r29, 0x01	; 1
    5d5a:	03 c0       	rjmp	.+6      	;  0x5d62
    5d5c:	fe 01       	movw	r30, r28
    5d5e:	f6 df       	rcall	.-20     	;  0x5d4c
    5d60:	22 96       	adiw	r28, 0x02	; 2
    5d62:	c4 32       	cpi	r28, 0x24	; 36
    5d64:	d1 07       	cpc	r29, r17
    5d66:	d1 f7       	brne	.-12     	;  0x5d5c
    5d68:	f8 94       	cli
    5d6a:	ff cf       	rjmp	.-2      	;  0x5d6a
